; ModuleID = 'releaseb.ll'
source_filename = "file.f67d76b2ad7a0dcd-cgu.0"
target datalayout = "e-m:e-p270:32:32-p271:32:32-p272:64:64-i64:64-f80:128-n8:16:32:64-S128"
target triple = "x86_64-unknown-linux-gnu"

@anon.d0ffe28a606728f639d337156f9d70f7.2 = external hidden unnamed_addr constant <{ ptr, [8 x i8] }>, align 8
@anon.eefebd60f168051c26261817b94e139e.0.llvm.5789592714874452404 = external hidden unnamed_addr constant <{}>, align 8
@anon.eefebd60f168051c26261817b94e139e.6 = external hidden unnamed_addr constant <{ ptr, [8 x i8] }>, align 8
@anon.eefebd60f168051c26261817b94e139e.7 = external hidden unnamed_addr constant <{ ptr, [16 x i8] }>, align 8
@anon.2fe1558b279405a80b786ded49b0582b.1 = external hidden unnamed_addr constant <{ [43 x i8] }>, align 1
@anon.2fe1558b279405a80b786ded49b0582b.2 = external hidden unnamed_addr constant <{ ptr, [16 x i8], ptr }>, align 8
@anon.2fe1558b279405a80b786ded49b0582b.23 = external hidden unnamed_addr constant <{ ptr, [16 x i8] }>, align 8
@anon.e3c4f13c2bd70693510fdd35fdaddcec.6 = external hidden unnamed_addr constant <{}>, align 8
@anon.e3c4f13c2bd70693510fdd35fdaddcec.25 = external hidden unnamed_addr constant <{ ptr, [16 x i8], ptr }>, align 8
@anon.e3c4f13c2bd70693510fdd35fdaddcec.27 = external hidden unnamed_addr constant <{ ptr, [16 x i8] }>, align 8
@anon.e3c4f13c2bd70693510fdd35fdaddcec.28 = external hidden unnamed_addr constant <{ ptr, [16 x i8] }>, align 8
@anon.e3c4f13c2bd70693510fdd35fdaddcec.37 = external hidden unnamed_addr constant <{ [38 x i8] }>, align 1
@anon.e3c4f13c2bd70693510fdd35fdaddcec.38 = external hidden unnamed_addr constant <{ [36 x i8] }>, align 1
@anon.e3c4f13c2bd70693510fdd35fdaddcec.42 = external hidden unnamed_addr constant <{ [2 x i8] }>, align 1
@anon.e3c4f13c2bd70693510fdd35fdaddcec.43 = external hidden unnamed_addr constant <{ [2 x i8] }>, align 1
@anon.e3c4f13c2bd70693510fdd35fdaddcec.44 = external hidden unnamed_addr constant <{ [7 x i8] }>, align 1
@anon.e3c4f13c2bd70693510fdd35fdaddcec.48 = external hidden unnamed_addr constant <{ ptr, [8 x i8], ptr, [8 x i8], ptr, [8 x i8] }>, align 8
@anon.e3c4f13c2bd70693510fdd35fdaddcec.51 = external hidden unnamed_addr constant <{ ptr, [8 x i8], ptr, [8 x i8], ptr, [8 x i8], ptr, [8 x i8] }>, align 8
@anon.d3d9c0cc9c7e68c9a212b94d9e4289be.20 = external hidden unnamed_addr constant <{ ptr, [8 x i8], ptr, [8 x i8] }>, align 8
@anon.1da5c16c6583322d206e035d5fb9ac4e.36 = external hidden unnamed_addr constant <{ ptr, [8 x i8] }>, align 8
@_ZN12panic_unwind8real_imp6CANARY17hadc477be0df8b622E = external hidden constant <{ [1 x i8] }>, align 1
@_ZN3std9panicking4HOOK17hd8940badb9f9928bE = external hidden global <{ [9 x i8], [7 x i8], [8 x i8], [8 x i8] }>, align 8
@anon.49f5641cf34e9cf781d07370d03020be.43 = external hidden unnamed_addr constant <{ [12 x i8] }>, align 1
@anon.49f5641cf34e9cf781d07370d03020be.44 = external hidden unnamed_addr constant <{ [9 x i8] }>, align 1
@anon.49f5641cf34e9cf781d07370d03020be.45 = external hidden unnamed_addr constant <{ ptr, [16 x i8], ptr, ptr, ptr, ptr, ptr, ptr, ptr }>, align 8
@anon.49f5641cf34e9cf781d07370d03020be.46 = external hidden unnamed_addr constant <{ ptr, [16 x i8], ptr, ptr, ptr, ptr, ptr, ptr, ptr }>, align 8
@anon.49f5641cf34e9cf781d07370d03020be.51 = external hidden unnamed_addr constant <{ ptr, [8 x i8], ptr, [8 x i8], ptr, [8 x i8], ptr, [8 x i8] }>, align 8
@anon.49f5641cf34e9cf781d07370d03020be.53 = external hidden unnamed_addr constant <{ ptr, [8 x i8] }>, align 8
@"_ZN3std9panicking12default_hook28_$u7b$$u7b$closure$u7d$$u7d$11FIRST_PANIC17ha64ebe25fa6a98d7E" = external hidden global <{ [1 x i8] }>, align 1
@anon.49f5641cf34e9cf781d07370d03020be.54 = external hidden unnamed_addr constant <{ ptr, [16 x i8] }>, align 8
@anon.49f5641cf34e9cf781d07370d03020be.57 = external hidden unnamed_addr constant <{ ptr, [16 x i8], ptr }>, align 8
@anon.49f5641cf34e9cf781d07370d03020be.59 = external hidden unnamed_addr constant <{ ptr, [8 x i8], ptr, [8 x i8] }>, align 8
@anon.49f5641cf34e9cf781d07370d03020be.61 = external hidden unnamed_addr constant <{ ptr, [8 x i8] }>, align 8
@anon.49f5641cf34e9cf781d07370d03020be.63 = external hidden unnamed_addr constant <{ ptr, [8 x i8] }>, align 8
@anon.49f5641cf34e9cf781d07370d03020be.67 = external hidden unnamed_addr constant <{ ptr, [8 x i8], ptr, [8 x i8] }>, align 8
@anon.49f5641cf34e9cf781d07370d03020be.86.llvm.3100245818866642629 = external hidden unnamed_addr constant <{ ptr, [8 x i8] }>, align 8
@anon.49f5641cf34e9cf781d07370d03020be.88.llvm.3100245818866642629 = external hidden unnamed_addr constant <{ ptr, [16 x i8] }>, align 8
@anon.49f5641cf34e9cf781d07370d03020be.89.llvm.3100245818866642629 = external hidden unnamed_addr constant <{ [36 x i8] }>, align 1
@anon.49f5641cf34e9cf781d07370d03020be.90.llvm.3100245818866642629 = external hidden unnamed_addr constant <{ ptr, [16 x i8] }>, align 8
@anon.0cbb6f93f2f44bcc75bcce58e553de37.0.llvm.9950552589247086825 = external hidden unnamed_addr constant <{}>, align 8
@anon.0cbb6f93f2f44bcc75bcce58e553de37.2.llvm.9950552589247086825 = external hidden unnamed_addr constant <{ ptr, [8 x i8] }>, align 8
@anon.0cbb6f93f2f44bcc75bcce58e553de37.4.llvm.9950552589247086825 = external hidden unnamed_addr constant <{ ptr, [16 x i8] }>, align 8
@anon.0cbb6f93f2f44bcc75bcce58e553de37.19.llvm.9950552589247086825 = external hidden unnamed_addr constant <{ ptr, [8 x i8] }>, align 8
@anon.0cbb6f93f2f44bcc75bcce58e553de37.20.llvm.9950552589247086825 = external hidden unnamed_addr constant <{ ptr, [16 x i8] }>, align 8
@_ZN3std6thread8ThreadId3new7COUNTER17h6745a2e39dcc5381E.llvm.9950552589247086825 = external hidden global <{ [8 x i8] }>, align 8
@_ZN3std10sys_common11thread_info11THREAD_INFO7__getit3VAL17h19eae5392b660d96E.llvm.9950552589247086825 = external hidden thread_local global <{ [8 x i8], [16 x i8], [8 x i8] }>, align 8
@_ZN3std10sys_common11thread_info11THREAD_INFO7__getit5STATE17h7821be072859446aE.0.llvm.9950552589247086825 = external hidden thread_local unnamed_addr global i8, align 1
@_ZN3std5alloc4HOOK17h01f4de106dbc950eE = external hidden global <{ [8 x i8] }>, align 8
@anon.49f5641cf34e9cf781d07370d03020be.42.llvm.3100245818866642629 = external hidden unnamed_addr constant <{ [43 x i8] }>, align 1
@anon.ee5193789b5b465411d575523ab741f0.69.llvm.2066376875822331276 = external hidden unnamed_addr constant <{ [4 x i8] }>, align 4
@anon.ee5193789b5b465411d575523ab741f0.71.llvm.2066376875822331276 = external hidden unnamed_addr constant <{ ptr, [16 x i8] }>, align 8
@anon.ee5193789b5b465411d575523ab741f0.73.llvm.2066376875822331276 = external hidden unnamed_addr constant <{ ptr, [8 x i8] }>, align 8
@anon.2413429f16703b81589f952b15841abb.15 = external hidden unnamed_addr constant <{ ptr, [16 x i8], ptr }>, align 8
@anon.49f5641cf34e9cf781d07370d03020be.0.llvm.3100245818866642629 = external hidden unnamed_addr constant <{}>, align 8
@_ZN3std3sys4unix2os8ENV_LOCK17h89f5d625b586016aE.llvm.3100245818866642629 = external hidden global <{ [9 x i8], [3 x i8] }>, align 4
@anon.7c5502a9deccded8a3ba90acf2a62090.0.llvm.11955502528429326793 = external hidden unnamed_addr constant <{}>, align 8
@anon.7c5502a9deccded8a3ba90acf2a62090.1.llvm.11955502528429326793 = external hidden unnamed_addr constant <{ ptr, [16 x i8], ptr }>, align 8
@anon.7c5502a9deccded8a3ba90acf2a62090.16.llvm.11955502528429326793 = external hidden unnamed_addr constant <{ [40 x i8] }>, align 1
@_ZN3std2io5stdio19OUTPUT_CAPTURE_USED17hf6865506bcf5389dE.0.llvm.11955502528429326793 = external hidden unnamed_addr global i8, align 1
@_ZN3std2io5stdio6stderr8INSTANCE17h02fd0c7cc699e5f6E = external hidden global <{ [24 x i8] }>, align 8
@anon.7c5502a9deccded8a3ba90acf2a62090.35.llvm.11955502528429326793 = external hidden unnamed_addr constant <{ [70 x i8] }>, align 1
@anon.7c5502a9deccded8a3ba90acf2a62090.37.llvm.11955502528429326793 = external hidden unnamed_addr constant <{ ptr, [16 x i8] }>, align 8
@anon.7c5502a9deccded8a3ba90acf2a62090.40 = external hidden unnamed_addr constant <{ ptr, [8 x i8], ptr, [8 x i8] }>, align 8
@anon.7c5502a9deccded8a3ba90acf2a62090.41 = external hidden unnamed_addr constant <{ ptr, [16 x i8] }>, align 8
@anon.7c5502a9deccded8a3ba90acf2a62090.43 = external hidden unnamed_addr constant <{ [6 x i8] }>, align 1
@anon.7c5502a9deccded8a3ba90acf2a62090.46 = external hidden unnamed_addr constant <{ ptr, [9 x i8], [7 x i8] }>, align 8
@anon.7c5502a9deccded8a3ba90acf2a62090.47 = external hidden unnamed_addr constant <{ ptr, [16 x i8], ptr, ptr, ptr }>, align 8
@anon.7c5502a9deccded8a3ba90acf2a62090.55.llvm.11955502528429326793 = external hidden unnamed_addr constant <{ ptr, [16 x i8] }>, align 8
@_ZN3std5panic14SHOULD_CAPTURE17h6d3bf617aeacc1a7E.0.llvm.11955502528429326793 = external hidden unnamed_addr global i64, align 8
@anon.7c5502a9deccded8a3ba90acf2a62090.56.llvm.11955502528429326793 = external hidden unnamed_addr constant <{ [14 x i8] }>, align 1
@anon.7c5502a9deccded8a3ba90acf2a62090.58.llvm.11955502528429326793 = external hidden unnamed_addr constant <{ [4 x i8] }>, align 1
@anon.7c5502a9deccded8a3ba90acf2a62090.60.llvm.11955502528429326793 = external hidden unnamed_addr constant <{ [38 x i8] }>, align 1
@anon.7c5502a9deccded8a3ba90acf2a62090.62.llvm.11955502528429326793 = external hidden unnamed_addr constant <{ ptr, [16 x i8] }>, align 8
@anon.7c5502a9deccded8a3ba90acf2a62090.63.llvm.11955502528429326793 = external hidden unnamed_addr constant <{ ptr, [8 x i8] }>, align 8
@anon.7c5502a9deccded8a3ba90acf2a62090.76 = external hidden unnamed_addr constant <{ ptr, [16 x i8], ptr, ptr }>, align 8
@anon.7c5502a9deccded8a3ba90acf2a62090.77 = external hidden unnamed_addr constant <{ ptr, [16 x i8], ptr, ptr }>, align 8
@__cxa_thread_atexit_impl = extern_weak global i8
@_rust_extern_with_linkage___dso_handle.llvm.11955502528429326793 = external hidden global ptr
@_ZN3std9panicking11panic_count17LOCAL_PANIC_COUNT7__getit3VAL17ha70c7fdbb65d7f5fE.0.llvm.11955502528429326793 = external hidden thread_local unnamed_addr global i64, align 8
@_ZN3std9panicking11panic_count17LOCAL_PANIC_COUNT7__getit3VAL17ha70c7fdbb65d7f5fE.1.llvm.11955502528429326793 = external hidden thread_local unnamed_addr global i8, align 8
@_ZN3std4sync7remutex25current_thread_unique_ptr1X7__getit3VAL17hb426793cccdb2321E.llvm.11955502528429326793 = external hidden thread_local global <{ [1 x i8] }>, align 1
@_ZN3std2io5stdio14OUTPUT_CAPTURE7__getit5__KEY17h15828b3e0884a413E.llvm.11955502528429326793 = external hidden thread_local global <{ [8 x i8], [8 x i8], [1 x i8], [7 x i8] }>, align 8
@anon.49f5641cf34e9cf781d07370d03020be.31.llvm.3100245818866642629 = external hidden unnamed_addr constant <{ ptr, [9 x i8], [7 x i8] }>, align 8
@anon.0cbb6f93f2f44bcc75bcce58e553de37.54.llvm.9950552589247086825 = external hidden unnamed_addr constant <{ ptr, [16 x i8], ptr, ptr, ptr }>, align 8
@anon.0cbb6f93f2f44bcc75bcce58e553de37.56.llvm.9950552589247086825 = external hidden unnamed_addr constant <{ ptr, [9 x i8], [7 x i8] }>, align 8
@anon.0cbb6f93f2f44bcc75bcce58e553de37.58.llvm.9950552589247086825 = external hidden unnamed_addr constant <{ ptr, [16 x i8], ptr, ptr, ptr }>, align 8
@anon.d171c0e895e077d41e638b9b7e57398d.68.llvm.7279691912519863836 = external hidden unnamed_addr constant <{ ptr, [8 x i8] }>, align 8
@_ZN3std10sys_common17thread_local_dtor22register_dtor_fallback5DTORS17hd0ab7c72161d8bc2E.llvm.7279691912519863836 = external hidden global <{ [8 x i8], ptr }>, align 8
@_ZN3std10sys_common9backtrace4lock4LOCK17h25851852f49cd150E.llvm.11955502528429326793 = external hidden global <{ [5 x i8], [3 x i8] }>, align 4
@_ZN3std9panicking11panic_count18GLOBAL_PANIC_COUNT17hbd0a618f0d2566aaE = external hidden global <{ [8 x i8] }>, align 8
@__rust_no_alloc_shim_is_unstable = external hidden global i8

; Function Attrs: noinline nonlazybind sanitize_hwaddress uwtable
define dso_local "enzyme_type"="{}" void @eprintfunc() unnamed_addr #0 {
  %1 = alloca [0 x { ptr, ptr }], align 8
  %2 = alloca { { ptr, i64 }, { ptr, i64 }, { ptr, i64 } }, align 8
  call void @llvm.lifetime.start.p0(i64 48, ptr nonnull %2)
  store ptr @anon.d0ffe28a606728f639d337156f9d70f7.2, ptr %2, align 8, !alias.scope !5, !noalias !8
  %3 = getelementptr inbounds { ptr, i64 }, ptr %2, i64 0, i32 1
  store i64 1, ptr %3, align 8, !alias.scope !5, !noalias !8
  %4 = getelementptr inbounds { { ptr, i64 }, { ptr, i64 }, { ptr, i64 } }, ptr %2, i64 0, i32 2
  store ptr null, ptr %4, align 8, !alias.scope !5, !noalias !8
  %5 = getelementptr inbounds { { ptr, i64 }, { ptr, i64 }, { ptr, i64 } }, ptr %2, i64 0, i32 1
  store ptr %1, ptr %5, align 8, !alias.scope !5, !noalias !8
  %6 = getelementptr inbounds { { ptr, i64 }, { ptr, i64 }, { ptr, i64 } }, ptr %2, i64 0, i32 1, i32 1
  store i64 0, ptr %6, align 8, !alias.scope !5, !noalias !8
  call void @_ZN3std2io5stdio7_eprint17h1ff923295f510774E(ptr noalias nocapture noundef nonnull align 8 dereferenceable(48) %2)
  call void @llvm.lifetime.end.p0(i64 48, ptr nonnull %2)
  ret void
}

; Function Attrs: nocallback nofree nosync nounwind willreturn memory(argmem: readwrite)
declare void @llvm.lifetime.start.p0(i64 immarg, ptr nocapture) #1

; Function Attrs: nocallback nofree nosync nounwind willreturn memory(argmem: readwrite)
declare void @llvm.lifetime.end.p0(i64 immarg, ptr nocapture) #1

; Function Attrs: sanitize_hwaddress uwtable
define hidden ptr @__rust_alloc(i64 %0, i64 %1) #2 {
  %3 = tail call ptr @__rdl_alloc(i64 %0, i64 %1)
  ret ptr %3
}

; Function Attrs: sanitize_hwaddress uwtable
define hidden void @__rust_dealloc(ptr %0, i64 %1, i64 %2) #2 {
  tail call void @__rdl_dealloc(ptr %0, i64 %1, i64 %2)
  ret void
}

; Function Attrs: noreturn sanitize_hwaddress uwtable
define hidden void @__rust_alloc_error_handler(i64 %0, i64 %1) #3 {
  tail call void @__rg_oom(i64 %0, i64 %1)
  ret void
}

; Function Attrs: nofree nounwind nonlazybind willreturn memory(argmem: read)
declare i32 @bcmp(ptr nocapture, ptr nocapture, i64) local_unnamed_addr #4

; Function Attrs: nocallback nofree nounwind willreturn memory(argmem: readwrite)
declare void @llvm.memcpy.p0.p0.i64(ptr noalias nocapture writeonly, ptr noalias nocapture readonly, i64, i1 immarg) #5

; Function Attrs: nocallback nofree nosync nounwind willreturn memory(inaccessiblemem: readwrite)
declare void @llvm.experimental.noalias.scope.decl(metadata) #6

; Function Attrs: nocallback nofree nosync nounwind speculatable willreturn memory(none)
declare { i64, i1 } @llvm.uadd.with.overflow.i64(i64, i64) #7

; Function Attrs: nocallback nofree nosync nounwind speculatable willreturn memory(none)
declare i64 @llvm.umax.i64(i64, i64) #7

; Function Attrs: nocallback nofree nosync nounwind willreturn memory(inaccessiblemem: readwrite)
declare void @llvm.assume(i1 noundef) #6

; Function Attrs: mustprogress nofree nounwind nonlazybind sanitize_hwaddress willreturn memory(argmem: read) uwtable
declare noundef i64 @strlen(ptr nocapture noundef) unnamed_addr #8

; Function Attrs: noinline noreturn nonlazybind sanitize_hwaddress uwtable
define hidden void @_ZN5alloc7raw_vec17capacity_overflow17h646143933b77847dE() unnamed_addr #9 {
  %1 = alloca { { ptr, i64 }, { ptr, i64 }, { ptr, i64 } }, align 8
  call void @llvm.lifetime.start.p0(i64 48, ptr nonnull %1)
  store ptr @anon.eefebd60f168051c26261817b94e139e.6, ptr %1, align 8
  %2 = getelementptr inbounds { ptr, i64 }, ptr %1, i64 0, i32 1
  store i64 1, ptr %2, align 8
  %3 = getelementptr inbounds { { ptr, i64 }, { ptr, i64 }, { ptr, i64 } }, ptr %1, i64 0, i32 2
  store ptr null, ptr %3, align 8
  %4 = getelementptr inbounds { { ptr, i64 }, { ptr, i64 }, { ptr, i64 } }, ptr %1, i64 0, i32 1
  store ptr @anon.eefebd60f168051c26261817b94e139e.0.llvm.5789592714874452404, ptr %4, align 8
  %5 = getelementptr inbounds { { ptr, i64 }, { ptr, i64 }, { ptr, i64 } }, ptr %1, i64 0, i32 1, i32 1
  store i64 0, ptr %5, align 8
  call void @_ZN4core9panicking9panic_fmt17h9b61d05f69f05277E(ptr noalias nocapture noundef nonnull readonly align 8 dereferenceable(48) %1, ptr noalias noundef nonnull readonly align 8 dereferenceable(24) @anon.eefebd60f168051c26261817b94e139e.7) #34
  unreachable
}

; Function Attrs: cold noreturn nonlazybind sanitize_hwaddress uwtable
define hidden void @_ZN5alloc5alloc18handle_alloc_error17h673e7e4436424ea8E(i64 noundef %0, i64 noundef %1) unnamed_addr #10 {
  %3 = add i64 %0, -1
  %4 = icmp sgt i64 %3, -1
  tail call void @llvm.assume(i1 %4)
  tail call void @__rust_alloc_error_handler(i64 noundef %1, i64 noundef %0) #34
  unreachable
}

; Function Attrs: cold noreturn nounwind
declare void @llvm.trap() #11

; Function Attrs: nonlazybind sanitize_hwaddress uwtable
define hidden { i64, i64 } @_ZN5alloc4sync32arcinner_layout_for_value_layout17h738ec2d39f0d29d9E(i64 noundef %0, i64 noundef %1) unnamed_addr #12 personality ptr @rust_eh_personality {
  %3 = alloca {}, align 1
  %4 = tail call i64 @llvm.umax.i64(i64 %0, i64 8)
  %5 = add i64 %0, -1
  %6 = icmp sgt i64 %5, -1
  tail call void @llvm.assume(i1 %6)
  %7 = add i64 %0, 15
  %8 = sub i64 0, %0
  %9 = and i64 %7, %8
  %10 = add i64 %9, -16
  %11 = tail call { i64, i1 } @llvm.uadd.with.overflow.i64(i64 %10, i64 16)
  %12 = extractvalue { i64, i1 } %11, 1
  br i1 %12, label %21, label %13

13:                                               ; preds = %2
  %14 = extractvalue { i64, i1 } %11, 0
  %15 = tail call { i64, i1 } @llvm.uadd.with.overflow.i64(i64 %14, i64 %1)
  %16 = extractvalue { i64, i1 } %15, 0
  %17 = extractvalue { i64, i1 } %15, 1
  %18 = sub nuw i64 -9223372036854775808, %4
  %19 = icmp ugt i64 %16, %18
  %20 = select i1 %17, i1 true, i1 %19
  br i1 %20, label %21, label %22

21:                                               ; preds = %13, %2
  call void @llvm.lifetime.start.p0(i64 0, ptr nonnull %3)
  call void @_ZN4core6result13unwrap_failed17h792f0fca794950e8E(ptr noalias noundef nonnull readonly align 1 @anon.2fe1558b279405a80b786ded49b0582b.1, i64 noundef 43, ptr noundef nonnull align 1 %3, ptr noalias noundef nonnull readonly align 8 dereferenceable(24) @anon.2fe1558b279405a80b786ded49b0582b.2, ptr noalias noundef nonnull readonly align 8 dereferenceable(24) @anon.2fe1558b279405a80b786ded49b0582b.23) #34, !noalias !10
  unreachable

22:                                               ; preds = %13
  call void @llvm.lifetime.start.p0(i64 0, ptr nonnull %3)
  call void @llvm.lifetime.end.p0(i64 0, ptr nonnull %3)
  %23 = add i64 %4, -1
  %24 = add i64 %23, %16
  %25 = sub i64 0, %4
  %26 = and i64 %24, %25
  %27 = insertvalue { i64, i64 } poison, i64 %4, 0
  %28 = insertvalue { i64, i64 } %27, i64 %26, 1
  ret { i64, i64 } %28
}

; Function Attrs: nocallback nofree nosync nounwind speculatable willreturn memory(none)
declare { i32, i1 } @llvm.uadd.with.overflow.i32(i32, i32) #7

; Function Attrs: nocallback nofree nounwind willreturn memory(argmem: write)
declare void @llvm.memset.p0.i64(ptr nocapture writeonly, i8, i64, i1 immarg) #13

; Function Attrs: nonlazybind sanitize_hwaddress uwtable
define hidden noundef zeroext i1 @_ZN4core3fmt5write17h93b330e7c1ab4f05E(ptr noundef nonnull align 1 %0, ptr noalias noundef readonly align 8 dereferenceable(24) %1, ptr noalias nocapture noundef readonly align 8 dereferenceable(48) %2) unnamed_addr #12 personality ptr @rust_eh_personality {
  %4 = alloca { { i64, i64 }, { i64, i64 }, { ptr, ptr }, i32, i32, i8, [7 x i8] }, align 8
  call void @llvm.lifetime.start.p0(i64 64, ptr nonnull %4)
  %5 = getelementptr inbounds { { i64, i64 }, { i64, i64 }, { ptr, ptr }, i32, i32, i8, [7 x i8] }, ptr %4, i64 0, i32 4
  store i32 0, ptr %5, align 4
  %6 = getelementptr inbounds { { i64, i64 }, { i64, i64 }, { ptr, ptr }, i32, i32, i8, [7 x i8] }, ptr %4, i64 0, i32 3
  store i32 32, ptr %6, align 8
  %7 = getelementptr inbounds { { i64, i64 }, { i64, i64 }, { ptr, ptr }, i32, i32, i8, [7 x i8] }, ptr %4, i64 0, i32 5
  store i8 3, ptr %7, align 8
  store i64 0, ptr %4, align 8
  %8 = getelementptr inbounds { { i64, i64 }, { i64, i64 }, { ptr, ptr }, i32, i32, i8, [7 x i8] }, ptr %4, i64 0, i32 1
  store i64 0, ptr %8, align 8
  %9 = getelementptr inbounds { { i64, i64 }, { i64, i64 }, { ptr, ptr }, i32, i32, i8, [7 x i8] }, ptr %4, i64 0, i32 2
  store ptr %0, ptr %9, align 8
  %10 = getelementptr inbounds { { i64, i64 }, { i64, i64 }, { ptr, ptr }, i32, i32, i8, [7 x i8] }, ptr %4, i64 0, i32 2, i32 1
  store ptr %1, ptr %10, align 8
  %11 = getelementptr inbounds { { ptr, i64 }, { ptr, i64 }, { ptr, i64 } }, ptr %2, i64 0, i32 2
  %12 = load ptr, ptr %11, align 8, !noundef !14
  %13 = icmp eq ptr %12, null
  br i1 %13, label %14, label %25

14:                                               ; preds = %3
  %15 = getelementptr inbounds { { ptr, i64 }, { ptr, i64 }, { ptr, i64 } }, ptr %2, i64 0, i32 1
  %16 = load ptr, ptr %15, align 8, !nonnull !14, !align !15, !noundef !14
  %17 = getelementptr inbounds { { ptr, i64 }, { ptr, i64 }, { ptr, i64 } }, ptr %2, i64 0, i32 1, i32 1
  %18 = load i64, ptr %17, align 8, !noundef !14
  %19 = getelementptr inbounds { ptr, ptr }, ptr %16, i64 %18
  %20 = icmp eq i64 %18, 0
  br i1 %20, label %47, label %21

21:                                               ; preds = %14
  %22 = load ptr, ptr %2, align 8, !nonnull !14, !align !15, !noundef !14
  %23 = getelementptr inbounds { ptr, i64 }, ptr %2, i64 0, i32 1
  %24 = load i64, ptr %23, align 8, !noundef !14
  br label %38

25:                                               ; preds = %3
  %26 = getelementptr inbounds { { ptr, i64 }, { ptr, i64 }, { ptr, i64 } }, ptr %2, i64 0, i32 2, i32 1
  %27 = load i64, ptr %26, align 8, !noundef !14
  %28 = getelementptr inbounds { { i64, i64 }, { i64, i64 }, i64, i32, i32, i8, [7 x i8] }, ptr %12, i64 %27
  %29 = icmp eq i64 %27, 0
  br i1 %29, label %47, label %30

30:                                               ; preds = %25
  %31 = load ptr, ptr %2, align 8, !nonnull !14, !align !15, !noundef !14
  %32 = getelementptr inbounds { ptr, i64 }, ptr %2, i64 0, i32 1
  %33 = load i64, ptr %32, align 8, !noundef !14
  %34 = getelementptr inbounds { { ptr, i64 }, { ptr, i64 }, { ptr, i64 } }, ptr %2, i64 0, i32 1
  %35 = getelementptr inbounds { { ptr, i64 }, { ptr, i64 }, { ptr, i64 } }, ptr %2, i64 0, i32 1, i32 1
  %36 = getelementptr inbounds { i64, i64 }, ptr %4, i64 0, i32 1
  %37 = getelementptr inbounds { { i64, i64 }, { i64, i64 }, { ptr, ptr }, i32, i32, i8, [7 x i8] }, ptr %4, i64 0, i32 1, i32 1
  br label %68

38:                                               ; preds = %65, %21
  %39 = phi i64 [ 0, %21 ], [ %42, %65 ]
  %40 = phi ptr [ %16, %21 ], [ %41, %65 ]
  %41 = getelementptr inbounds { ptr, ptr }, ptr %40, i64 1
  %42 = add nuw nsw i64 %39, 1
  %43 = icmp ult i64 %39, %24
  call void @llvm.assume(i1 %43)
  %44 = getelementptr inbounds { ptr, i64 }, ptr %22, i64 %39, i32 1
  %45 = load i64, ptr %44, align 8, !noundef !14
  %46 = icmp eq i64 %45, 0
  br i1 %46, label %60, label %52

47:                                               ; preds = %151, %65, %25, %14
  %48 = phi i64 [ 0, %14 ], [ 0, %25 ], [ %42, %65 ], [ %72, %151 ]
  %49 = getelementptr inbounds { ptr, i64 }, ptr %2, i64 0, i32 1
  %50 = load i64, ptr %49, align 8, !noundef !14
  %51 = icmp ult i64 %48, %50
  br i1 %51, label %77, label %88

52:                                               ; preds = %38
  %53 = getelementptr inbounds { ptr, i64 }, ptr %22, i64 %39
  %54 = load ptr, ptr %9, align 8, !nonnull !14, !align !16, !noundef !14
  %55 = load ptr, ptr %10, align 8, !nonnull !14, !align !15, !noundef !14
  %56 = load ptr, ptr %53, align 8, !nonnull !14, !align !16, !noundef !14
  %57 = getelementptr inbounds ptr, ptr %55, i64 3
  %58 = load ptr, ptr %57, align 8, !invariant.load !14, !nonnull !14
  %59 = call noundef zeroext i1 %58(ptr noundef nonnull align 1 %54, ptr noalias noundef nonnull readonly align 1 %56, i64 noundef %45)
  br i1 %59, label %67, label %60

60:                                               ; preds = %52, %38
  %61 = load ptr, ptr %40, align 8, !nonnull !14, !align !16, !noundef !14
  %62 = getelementptr i8, ptr %40, i64 8
  %63 = load ptr, ptr %62, align 8, !nonnull !14, !noundef !14
  %64 = call noundef zeroext i1 %63(ptr noundef nonnull align 1 %61, ptr noalias noundef nonnull align 8 dereferenceable(64) %4)
  br i1 %64, label %67, label %65

65:                                               ; preds = %60
  %66 = icmp eq ptr %41, %19
  br i1 %66, label %47, label %38

67:                                               ; preds = %140, %91, %77, %60, %52
  call void @llvm.lifetime.end.p0(i64 64, ptr nonnull %4)
  br label %89

68:                                               ; preds = %151, %30
  %69 = phi i64 [ 0, %30 ], [ %72, %151 ]
  %70 = phi ptr [ %12, %30 ], [ %71, %151 ]
  %71 = getelementptr inbounds { { i64, i64 }, { i64, i64 }, i64, i32, i32, i8, [7 x i8] }, ptr %70, i64 1
  %72 = add nuw nsw i64 %69, 1
  %73 = icmp ult i64 %69, %33
  call void @llvm.assume(i1 %73)
  %74 = getelementptr inbounds { ptr, i64 }, ptr %31, i64 %69, i32 1
  %75 = load i64, ptr %74, align 8, !noundef !14
  %76 = icmp eq i64 %75, 0
  br i1 %76, label %99, label %91

77:                                               ; preds = %47
  %78 = load ptr, ptr %2, align 8, !nonnull !14, !align !15, !noundef !14
  %79 = getelementptr inbounds { ptr, i64 }, ptr %78, i64 %48
  %80 = load ptr, ptr %9, align 8, !nonnull !14, !align !16, !noundef !14
  %81 = load ptr, ptr %10, align 8, !nonnull !14, !align !15, !noundef !14
  %82 = load ptr, ptr %79, align 8, !nonnull !14, !align !16, !noundef !14
  %83 = getelementptr inbounds { ptr, i64 }, ptr %78, i64 %48, i32 1
  %84 = load i64, ptr %83, align 8, !noundef !14
  %85 = getelementptr inbounds ptr, ptr %81, i64 3
  %86 = load ptr, ptr %85, align 8, !invariant.load !14, !nonnull !14
  %87 = call noundef zeroext i1 %86(ptr noundef nonnull align 1 %80, ptr noalias noundef nonnull readonly align 1 %82, i64 noundef %84)
  br i1 %87, label %67, label %88

88:                                               ; preds = %77, %47
  call void @llvm.lifetime.end.p0(i64 64, ptr nonnull %4)
  br label %89

89:                                               ; preds = %88, %67
  %90 = phi i1 [ true, %67 ], [ false, %88 ]
  ret i1 %90

91:                                               ; preds = %68
  %92 = getelementptr inbounds { ptr, i64 }, ptr %31, i64 %69
  %93 = load ptr, ptr %9, align 8, !nonnull !14, !align !16, !noundef !14
  %94 = load ptr, ptr %10, align 8, !nonnull !14, !align !15, !noundef !14
  %95 = load ptr, ptr %92, align 8, !nonnull !14, !align !16, !noundef !14
  %96 = getelementptr inbounds ptr, ptr %94, i64 3
  %97 = load ptr, ptr %96, align 8, !invariant.load !14, !nonnull !14
  %98 = call noundef zeroext i1 %97(ptr noundef nonnull align 1 %93, ptr noalias noundef nonnull readonly align 1 %95, i64 noundef %75)
  br i1 %98, label %67, label %99

99:                                               ; preds = %91, %68
  %100 = load ptr, ptr %34, align 8, !nonnull !14, !align !15, !noundef !14
  %101 = load i64, ptr %35, align 8, !noundef !14
  call void @llvm.experimental.noalias.scope.decl(metadata !17)
  call void @llvm.experimental.noalias.scope.decl(metadata !20)
  call void @llvm.experimental.noalias.scope.decl(metadata !22)
  %102 = getelementptr inbounds { { i64, i64 }, { i64, i64 }, i64, i32, i32, i8, [7 x i8] }, ptr %70, i64 0, i32 3
  %103 = load i32, ptr %102, align 8, !range !24, !alias.scope !20, !noalias !25, !noundef !14
  store i32 %103, ptr %6, align 8, !alias.scope !17, !noalias !26
  %104 = getelementptr inbounds { { i64, i64 }, { i64, i64 }, i64, i32, i32, i8, [7 x i8] }, ptr %70, i64 0, i32 5
  %105 = load i8, ptr %104, align 8, !range !27, !alias.scope !20, !noalias !25, !noundef !14
  store i8 %105, ptr %7, align 8, !alias.scope !17, !noalias !26
  %106 = getelementptr inbounds { { i64, i64 }, { i64, i64 }, i64, i32, i32, i8, [7 x i8] }, ptr %70, i64 0, i32 4
  %107 = load i32, ptr %106, align 4, !alias.scope !20, !noalias !25, !noundef !14
  store i32 %107, ptr %5, align 4, !alias.scope !17, !noalias !26
  %108 = getelementptr inbounds { { i64, i64 }, { i64, i64 }, i64, i32, i32, i8, [7 x i8] }, ptr %70, i64 0, i32 1
  %109 = load i64, ptr %108, align 8, !range !28, !alias.scope !20, !noalias !25, !noundef !14
  %110 = getelementptr inbounds { { i64, i64 }, { i64, i64 }, i64, i32, i32, i8, [7 x i8] }, ptr %70, i64 0, i32 1, i32 1
  %111 = load i64, ptr %110, align 8, !alias.scope !20, !noalias !25
  call void @llvm.experimental.noalias.scope.decl(metadata !29)
  switch i64 %109, label %112 [
    i64 0, label %113
    i64 1, label %114
    i64 2, label %123
  ]

112:                                              ; preds = %99
  unreachable

113:                                              ; preds = %99
  br label %123

114:                                              ; preds = %99
  %115 = icmp ult i64 %111, %101
  call void @llvm.assume(i1 %115)
  %116 = getelementptr inbounds { ptr, ptr }, ptr %100, i64 %111, i32 1
  %117 = load ptr, ptr %116, align 8, !alias.scope !32, !noalias !33, !nonnull !14, !noundef !14
  %118 = icmp eq ptr %117, @_ZN4core3ops8function6FnOnce9call_once17hc683de79ed776df0E.llvm.12949626036818284312
  br i1 %118, label %119, label %123

119:                                              ; preds = %114
  %120 = getelementptr inbounds { ptr, ptr }, ptr %100, i64 %111
  %121 = load ptr, ptr %120, align 8, !alias.scope !32, !noalias !33, !nonnull !14, !align !16, !noundef !14
  %122 = load i64, ptr %121, align 8, !noalias !34, !noundef !14
  br label %123

123:                                              ; preds = %119, %114, %113, %99
  %124 = phi i64 [ %122, %119 ], [ %111, %113 ], [ undef, %99 ], [ undef, %114 ]
  %125 = phi i64 [ 1, %119 ], [ 1, %113 ], [ 0, %99 ], [ 0, %114 ]
  store i64 %125, ptr %4, align 8, !alias.scope !17, !noalias !26
  store i64 %124, ptr %36, align 8, !alias.scope !17, !noalias !26
  %126 = load i64, ptr %70, align 8, !range !28, !alias.scope !20, !noalias !25, !noundef !14
  %127 = getelementptr inbounds i8, ptr %70, i64 8
  %128 = load i64, ptr %127, align 8, !alias.scope !20, !noalias !25
  call void @llvm.experimental.noalias.scope.decl(metadata !35)
  switch i64 %126, label %129 [
    i64 0, label %130
    i64 1, label %131
    i64 2, label %140
  ]

129:                                              ; preds = %123
  unreachable

130:                                              ; preds = %123
  br label %140

131:                                              ; preds = %123
  %132 = icmp ult i64 %128, %101
  call void @llvm.assume(i1 %132)
  %133 = getelementptr inbounds { ptr, ptr }, ptr %100, i64 %128, i32 1
  %134 = load ptr, ptr %133, align 8, !alias.scope !38, !noalias !33, !nonnull !14, !noundef !14
  %135 = icmp eq ptr %134, @_ZN4core3ops8function6FnOnce9call_once17hc683de79ed776df0E.llvm.12949626036818284312
  br i1 %135, label %136, label %140

136:                                              ; preds = %131
  %137 = getelementptr inbounds { ptr, ptr }, ptr %100, i64 %128
  %138 = load ptr, ptr %137, align 8, !alias.scope !38, !noalias !33, !nonnull !14, !align !16, !noundef !14
  %139 = load i64, ptr %138, align 8, !noalias !39, !noundef !14
  br label %140

140:                                              ; preds = %136, %131, %130, %123
  %141 = phi i64 [ %139, %136 ], [ %128, %130 ], [ undef, %123 ], [ undef, %131 ]
  %142 = phi i64 [ 1, %136 ], [ 1, %130 ], [ 0, %123 ], [ 0, %131 ]
  store i64 %142, ptr %8, align 8, !alias.scope !17, !noalias !26
  store i64 %141, ptr %37, align 8, !alias.scope !17, !noalias !26
  %143 = getelementptr inbounds { { i64, i64 }, { i64, i64 }, i64, i32, i32, i8, [7 x i8] }, ptr %70, i64 0, i32 2
  %144 = load i64, ptr %143, align 8, !alias.scope !20, !noalias !25, !noundef !14
  %145 = icmp ult i64 %144, %101
  call void @llvm.assume(i1 %145)
  %146 = getelementptr inbounds { ptr, ptr }, ptr %100, i64 %144
  %147 = load ptr, ptr %146, align 8, !alias.scope !22, !noalias !33, !nonnull !14, !align !16, !noundef !14
  %148 = getelementptr i8, ptr %146, i64 8
  %149 = load ptr, ptr %148, align 8, !alias.scope !22, !noalias !33, !nonnull !14, !noundef !14
  %150 = call noundef zeroext i1 %149(ptr noundef nonnull align 1 %147, ptr noalias noundef nonnull align 8 dereferenceable(64) %4), !noalias !26
  br i1 %150, label %67, label %151

151:                                              ; preds = %140
  %152 = icmp eq ptr %71, %28
  br i1 %152, label %47, label %68
}

; Function Attrs: nonlazybind sanitize_hwaddress uwtable
declare hidden noundef zeroext i1 @"_ZN59_$LT$core..fmt..Arguments$u20$as$u20$core..fmt..Display$GT$3fmt17hcb392a51a5b68e81E"(ptr noalias nocapture noundef readonly align 8 dereferenceable(48), ptr noalias nocapture noundef readonly align 8 dereferenceable(64)) unnamed_addr #12

; Function Attrs: nonlazybind sanitize_hwaddress uwtable
declare hidden noundef zeroext i1 @"_ZN42_$LT$$RF$T$u20$as$u20$core..fmt..Debug$GT$3fmt17he205b18a68c04c93E"(ptr noalias nocapture noundef readonly align 8 dereferenceable(16), ptr noalias noundef align 8 dereferenceable(64)) unnamed_addr #12

; Function Attrs: nonlazybind sanitize_hwaddress uwtable
declare hidden noundef zeroext i1 @"_ZN44_$LT$$RF$T$u20$as$u20$core..fmt..Display$GT$3fmt17h594d2c4cb70d8476E"(ptr noalias nocapture noundef readonly align 8 dereferenceable(16), ptr noalias nocapture noundef readonly align 8 dereferenceable(64)) unnamed_addr #12

; Function Attrs: nonlazybind sanitize_hwaddress uwtable
declare hidden noundef zeroext i1 @"_ZN73_$LT$core..panic..panic_info..PanicInfo$u20$as$u20$core..fmt..Display$GT$3fmt17hd486664a8881354dE"(ptr noalias nocapture noundef readonly align 8 dereferenceable(40), ptr noalias nocapture noundef readonly align 8 dereferenceable(64)) unnamed_addr #12

; Function Attrs: cold noinline noreturn nonlazybind sanitize_hwaddress uwtable
define hidden void @_ZN4core9panicking9panic_fmt17h9b61d05f69f05277E(ptr noalias nocapture noundef readonly align 8 dereferenceable(48) %0, ptr noalias noundef readonly align 8 dereferenceable(24) %1) unnamed_addr #14 {
  %3 = alloca { { ptr, ptr }, ptr, ptr, i8, i8, [6 x i8] }, align 8
  call void @llvm.lifetime.start.p0(i64 40, ptr nonnull %3)
  store ptr @anon.e3c4f13c2bd70693510fdd35fdaddcec.6, ptr %3, align 8
  %4 = getelementptr inbounds { ptr, ptr }, ptr %3, i64 0, i32 1
  store ptr @anon.e3c4f13c2bd70693510fdd35fdaddcec.25, ptr %4, align 8
  %5 = getelementptr inbounds { { ptr, ptr }, ptr, ptr, i8, i8, [6 x i8] }, ptr %3, i64 0, i32 1
  store ptr %0, ptr %5, align 8
  %6 = getelementptr inbounds { { ptr, ptr }, ptr, ptr, i8, i8, [6 x i8] }, ptr %3, i64 0, i32 2
  store ptr %1, ptr %6, align 8
  %7 = getelementptr inbounds { { ptr, ptr }, ptr, ptr, i8, i8, [6 x i8] }, ptr %3, i64 0, i32 3
  store i8 1, ptr %7, align 8
  %8 = getelementptr inbounds { { ptr, ptr }, ptr, ptr, i8, i8, [6 x i8] }, ptr %3, i64 0, i32 4
  store i8 0, ptr %8, align 1
  call void @rust_begin_unwind(ptr noalias noundef nonnull readonly align 8 dereferenceable(40) %3) #34
  unreachable
}

; Function Attrs: cold noinline noreturn nounwind nonlazybind sanitize_hwaddress uwtable
define hidden void @_ZN4core9panicking18panic_nounwind_fmt17h54c5f3f483ecd117E(ptr noalias nocapture noundef readonly align 8 dereferenceable(48) %0, i1 noundef zeroext %1, ptr noalias noundef readonly align 8 dereferenceable(24) %2) unnamed_addr #15 personality ptr @rust_eh_personality {
  %4 = alloca { { ptr, ptr }, ptr, ptr, i8, i8, [6 x i8] }, align 8
  %5 = alloca { { ptr, i64 }, { ptr, i64 }, { ptr, i64 } }, align 8
  call void @llvm.lifetime.start.p0(i64 48, ptr nonnull %5)
  call void @llvm.memcpy.p0.p0.i64(ptr noundef nonnull align 8 dereferenceable(48) "enzyme_type"="{[-1]:Pointer, [-1,0]:Pointer, [-1,0,-1]:Pointer, [-1,16]:Pointer, [-1,16,0]:Pointer}" %5, ptr noundef nonnull align 8 dereferenceable(48) "enzyme_type"="{[-1]:Pointer, [-1,0]:Pointer, [-1,0,-1]:Pointer, [-1,16]:Pointer, [-1,16,0]:Pointer}" %0, i64 48, i1 false)
  call void @llvm.lifetime.start.p0(i64 40, ptr nonnull %4)
  store ptr @anon.e3c4f13c2bd70693510fdd35fdaddcec.6, ptr %4, align 8
  %6 = getelementptr inbounds { ptr, ptr }, ptr %4, i64 0, i32 1
  store ptr @anon.e3c4f13c2bd70693510fdd35fdaddcec.25, ptr %6, align 8
  %7 = getelementptr inbounds { { ptr, ptr }, ptr, ptr, i8, i8, [6 x i8] }, ptr %4, i64 0, i32 1
  store ptr %5, ptr %7, align 8
  %8 = getelementptr inbounds { { ptr, ptr }, ptr, ptr, i8, i8, [6 x i8] }, ptr %4, i64 0, i32 2
  store ptr %2, ptr %8, align 8
  %9 = getelementptr inbounds { { ptr, ptr }, ptr, ptr, i8, i8, [6 x i8] }, ptr %4, i64 0, i32 3
  store i8 0, ptr %9, align 8
  %10 = getelementptr inbounds { { ptr, ptr }, ptr, ptr, i8, i8, [6 x i8] }, ptr %4, i64 0, i32 4
  %11 = zext i1 %1 to i8
  store i8 %11, ptr %10, align 1
  invoke void @rust_begin_unwind(ptr noalias noundef nonnull readonly align 8 dereferenceable(40) %4) #34
          to label %14 unwind label %12

12:                                               ; preds = %3
  %13 = landingpad { ptr, i32 }
          filter [0 x ptr] zeroinitializer
  call void @_ZN4core9panicking19panic_cannot_unwind17h74f5ef8f57308473E() #11
  unreachable

14:                                               ; preds = %3
  unreachable
}

; Function Attrs: cold noinline noreturn nounwind nonlazybind sanitize_hwaddress uwtable
define hidden void @_ZN4core9panicking19panic_cannot_unwind17h74f5ef8f57308473E() unnamed_addr #15 {
  tail call void @_ZN4core9panicking14panic_nounwind17hb673a2fae6b00412E(ptr noalias noundef nonnull readonly align 1 @anon.e3c4f13c2bd70693510fdd35fdaddcec.37, i64 noundef 38) #35
  unreachable
}

; Function Attrs: cold noinline noreturn nounwind nonlazybind sanitize_hwaddress uwtable
define hidden void @_ZN4core9panicking14panic_nounwind17hb673a2fae6b00412E(ptr noalias noundef nonnull readonly align 1 %0, i64 noundef %1) unnamed_addr #15 personality ptr @rust_eh_personality {
  %3 = alloca [1 x { ptr, i64 }], align 8
  %4 = alloca { { ptr, i64 }, { ptr, i64 }, { ptr, i64 } }, align 8
  call void @llvm.lifetime.start.p0(i64 48, ptr nonnull %4)
  call void @llvm.lifetime.start.p0(i64 16, ptr nonnull %3)
  store ptr %0, ptr %3, align 8
  %5 = getelementptr inbounds { ptr, i64 }, ptr %3, i64 0, i32 1
  store i64 %1, ptr %5, align 8
  store ptr %3, ptr %4, align 8
  %6 = getelementptr inbounds { ptr, i64 }, ptr %4, i64 0, i32 1
  store i64 1, ptr %6, align 8
  %7 = getelementptr inbounds { { ptr, i64 }, { ptr, i64 }, { ptr, i64 } }, ptr %4, i64 0, i32 2
  store ptr null, ptr %7, align 8
  %8 = getelementptr inbounds { { ptr, i64 }, { ptr, i64 }, { ptr, i64 } }, ptr %4, i64 0, i32 1
  store ptr @anon.e3c4f13c2bd70693510fdd35fdaddcec.6, ptr %8, align 8
  %9 = getelementptr inbounds { { ptr, i64 }, { ptr, i64 }, { ptr, i64 } }, ptr %4, i64 0, i32 1, i32 1
  store i64 0, ptr %9, align 8
  call void @_ZN4core9panicking18panic_nounwind_fmt17h54c5f3f483ecd117E(ptr noalias nocapture noundef nonnull readonly align 8 dereferenceable(48) %4, i1 noundef zeroext false, ptr noalias noundef nonnull readonly align 8 dereferenceable(24) @anon.e3c4f13c2bd70693510fdd35fdaddcec.27) #35
  unreachable
}

; Function Attrs: cold noinline noreturn nonlazybind sanitize_hwaddress uwtable
define hidden void @_ZN4core9panicking5panic17h270d4600dc7bb3f1E(ptr noalias noundef nonnull readonly align 1 %0, i64 noundef %1, ptr noalias noundef readonly align 8 dereferenceable(24) %2) unnamed_addr #14 {
  %4 = alloca [1 x { ptr, i64 }], align 8
  %5 = alloca { { ptr, i64 }, { ptr, i64 }, { ptr, i64 } }, align 8
  call void @llvm.lifetime.start.p0(i64 48, ptr nonnull %5)
  call void @llvm.lifetime.start.p0(i64 16, ptr nonnull %4)
  store ptr %0, ptr %4, align 8
  %6 = getelementptr inbounds { ptr, i64 }, ptr %4, i64 0, i32 1
  store i64 %1, ptr %6, align 8
  store ptr %4, ptr %5, align 8
  %7 = getelementptr inbounds { ptr, i64 }, ptr %5, i64 0, i32 1
  store i64 1, ptr %7, align 8
  %8 = getelementptr inbounds { { ptr, i64 }, { ptr, i64 }, { ptr, i64 } }, ptr %5, i64 0, i32 2
  store ptr null, ptr %8, align 8
  %9 = getelementptr inbounds { { ptr, i64 }, { ptr, i64 }, { ptr, i64 } }, ptr %5, i64 0, i32 1
  store ptr @anon.e3c4f13c2bd70693510fdd35fdaddcec.6, ptr %9, align 8
  %10 = getelementptr inbounds { { ptr, i64 }, { ptr, i64 }, { ptr, i64 } }, ptr %5, i64 0, i32 1, i32 1
  store i64 0, ptr %10, align 8
  call void @_ZN4core9panicking9panic_fmt17h9b61d05f69f05277E(ptr noalias nocapture noundef nonnull readonly align 8 dereferenceable(48) %5, ptr noalias noundef nonnull readonly align 8 dereferenceable(24) %2) #34
  unreachable
}

; Function Attrs: cold noinline noreturn nounwind nonlazybind sanitize_hwaddress uwtable
define hidden void @_ZN4core9panicking26panic_nounwind_nobacktrace17h269f93cd9c201874E(ptr noalias noundef nonnull readonly align 1 %0, i64 noundef %1) unnamed_addr #15 personality ptr @rust_eh_personality {
  %3 = alloca [1 x { ptr, i64 }], align 8
  %4 = alloca { { ptr, i64 }, { ptr, i64 }, { ptr, i64 } }, align 8
  call void @llvm.lifetime.start.p0(i64 48, ptr nonnull %4)
  call void @llvm.lifetime.start.p0(i64 16, ptr nonnull %3)
  store ptr %0, ptr %3, align 8
  %5 = getelementptr inbounds { ptr, i64 }, ptr %3, i64 0, i32 1
  store i64 %1, ptr %5, align 8
  store ptr %3, ptr %4, align 8
  %6 = getelementptr inbounds { ptr, i64 }, ptr %4, i64 0, i32 1
  store i64 1, ptr %6, align 8
  %7 = getelementptr inbounds { { ptr, i64 }, { ptr, i64 }, { ptr, i64 } }, ptr %4, i64 0, i32 2
  store ptr null, ptr %7, align 8
  %8 = getelementptr inbounds { { ptr, i64 }, { ptr, i64 }, { ptr, i64 } }, ptr %4, i64 0, i32 1
  store ptr @anon.e3c4f13c2bd70693510fdd35fdaddcec.6, ptr %8, align 8
  %9 = getelementptr inbounds { { ptr, i64 }, { ptr, i64 }, { ptr, i64 } }, ptr %4, i64 0, i32 1, i32 1
  store i64 0, ptr %9, align 8
  call void @_ZN4core9panicking18panic_nounwind_fmt17h54c5f3f483ecd117E(ptr noalias nocapture noundef nonnull readonly align 8 dereferenceable(48) %4, i1 noundef zeroext true, ptr noalias noundef nonnull readonly align 8 dereferenceable(24) @anon.e3c4f13c2bd70693510fdd35fdaddcec.28) #35
  unreachable
}

; Function Attrs: cold noinline noreturn nounwind nonlazybind sanitize_hwaddress uwtable
define hidden void @_ZN4core9panicking16panic_in_cleanup17h0cc56309fdf70f59E() unnamed_addr #15 {
  tail call void @_ZN4core9panicking26panic_nounwind_nobacktrace17h269f93cd9c201874E(ptr noalias noundef nonnull readonly align 1 @anon.e3c4f13c2bd70693510fdd35fdaddcec.38, i64 noundef 36) #35
  unreachable
}

; Function Attrs: cold noinline noreturn nonlazybind sanitize_hwaddress uwtable
define hidden void @_ZN4core9panicking19assert_failed_inner17h551a1bf80c6bea97E(i8 noundef %0, ptr noundef nonnull align 1 %1, ptr noalias noundef readonly align 8 dereferenceable(24) %2, ptr noundef nonnull align 1 %3, ptr noalias noundef readonly align 8 dereferenceable(24) %4, ptr noalias nocapture noundef readonly align 8 dereferenceable(48) %5, ptr noalias noundef readonly align 8 dereferenceable(24) %6) unnamed_addr #14 {
  %8 = alloca [3 x { ptr, ptr }], align 8
  %9 = alloca { { ptr, i64 }, { ptr, i64 }, { ptr, i64 } }, align 8
  %10 = alloca [4 x { ptr, ptr }], align 8
  %11 = alloca { { ptr, i64 }, { ptr, i64 }, { ptr, i64 } }, align 8
  %12 = alloca { { ptr, i64 }, { ptr, i64 }, { ptr, i64 } }, align 8
  %13 = alloca { ptr, i64 }, align 8
  %14 = alloca { ptr, ptr }, align 8
  %15 = alloca { ptr, ptr }, align 8
  store ptr %1, ptr %15, align 8
  %16 = getelementptr inbounds { ptr, ptr }, ptr %15, i64 0, i32 1
  store ptr %2, ptr %16, align 8
  store ptr %3, ptr %14, align 8
  %17 = getelementptr inbounds { ptr, ptr }, ptr %14, i64 0, i32 1
  store ptr %4, ptr %17, align 8
  call void @llvm.lifetime.start.p0(i64 16, ptr nonnull %13)
  switch i8 %0, label %18 [
    i8 0, label %19
    i8 1, label %20
    i8 2, label %21
  ]

18:                                               ; preds = %7
  unreachable

19:                                               ; preds = %7
  store ptr @anon.e3c4f13c2bd70693510fdd35fdaddcec.42, ptr %13, align 8
  br label %22

20:                                               ; preds = %7
  store ptr @anon.e3c4f13c2bd70693510fdd35fdaddcec.43, ptr %13, align 8
  br label %22

21:                                               ; preds = %7
  store ptr @anon.e3c4f13c2bd70693510fdd35fdaddcec.44, ptr %13, align 8
  br label %22

22:                                               ; preds = %21, %20, %19
  %23 = phi i64 [ 7, %21 ], [ 2, %20 ], [ 2, %19 ]
  %24 = getelementptr inbounds { ptr, i64 }, ptr %13, i64 0, i32 1
  store i64 %23, ptr %24, align 8
  %25 = load ptr, ptr %5, align 8, !noundef !14
  %26 = icmp eq ptr %25, null
  br i1 %26, label %27, label %37

27:                                               ; preds = %22
  call void @llvm.lifetime.start.p0(i64 48, ptr nonnull %9)
  call void @llvm.lifetime.start.p0(i64 48, ptr nonnull %8)
  store ptr %13, ptr %8, align 8
  %28 = getelementptr inbounds { ptr, ptr }, ptr %8, i64 0, i32 1
  store ptr @"_ZN44_$LT$$RF$T$u20$as$u20$core..fmt..Display$GT$3fmt17h594d2c4cb70d8476E", ptr %28, align 8
  %29 = getelementptr inbounds [3 x { ptr, ptr }], ptr %8, i64 0, i64 1
  store ptr %15, ptr %29, align 8
  %30 = getelementptr inbounds [3 x { ptr, ptr }], ptr %8, i64 0, i64 1, i32 1
  store ptr @"_ZN42_$LT$$RF$T$u20$as$u20$core..fmt..Debug$GT$3fmt17he205b18a68c04c93E", ptr %30, align 8
  %31 = getelementptr inbounds [3 x { ptr, ptr }], ptr %8, i64 0, i64 2
  store ptr %14, ptr %31, align 8
  %32 = getelementptr inbounds [3 x { ptr, ptr }], ptr %8, i64 0, i64 2, i32 1
  store ptr @"_ZN42_$LT$$RF$T$u20$as$u20$core..fmt..Debug$GT$3fmt17he205b18a68c04c93E", ptr %32, align 8
  store ptr @anon.e3c4f13c2bd70693510fdd35fdaddcec.48, ptr %9, align 8, !alias.scope !40, !noalias !43
  %33 = getelementptr inbounds { ptr, i64 }, ptr %9, i64 0, i32 1
  store i64 3, ptr %33, align 8, !alias.scope !40, !noalias !43
  %34 = getelementptr inbounds { { ptr, i64 }, { ptr, i64 }, { ptr, i64 } }, ptr %9, i64 0, i32 2
  store ptr null, ptr %34, align 8, !alias.scope !40, !noalias !43
  %35 = getelementptr inbounds { { ptr, i64 }, { ptr, i64 }, { ptr, i64 } }, ptr %9, i64 0, i32 1
  store ptr %8, ptr %35, align 8, !alias.scope !40, !noalias !43
  %36 = getelementptr inbounds { { ptr, i64 }, { ptr, i64 }, { ptr, i64 } }, ptr %9, i64 0, i32 1, i32 1
  store i64 3, ptr %36, align 8, !alias.scope !40, !noalias !43
  call void @_ZN4core9panicking9panic_fmt17h9b61d05f69f05277E(ptr noalias nocapture noundef nonnull readonly align 8 dereferenceable(48) %9, ptr noalias noundef nonnull readonly align 8 dereferenceable(24) %6) #34
  unreachable

37:                                               ; preds = %22
  call void @llvm.lifetime.start.p0(i64 48, ptr nonnull %12)
  call void @llvm.memcpy.p0.p0.i64(ptr noundef nonnull align 8 dereferenceable(48) "enzyme_type"="{[-1]:Pointer, [-1,0]:Pointer, [-1,0,-1]:Pointer, [-1,16]:Pointer, [-1,16,0]:Pointer}" %12, ptr noundef nonnull align 8 dereferenceable(48) "enzyme_type"="{[-1]:Pointer, [-1,0]:Pointer, [-1,0,-1]:Pointer, [-1,16]:Pointer, [-1,16,0]:Pointer}" %5, i64 48, i1 false)
  call void @llvm.lifetime.start.p0(i64 48, ptr nonnull %11)
  call void @llvm.lifetime.start.p0(i64 64, ptr nonnull %10)
  store ptr %13, ptr %10, align 8
  %38 = getelementptr inbounds { ptr, ptr }, ptr %10, i64 0, i32 1
  store ptr @"_ZN44_$LT$$RF$T$u20$as$u20$core..fmt..Display$GT$3fmt17h594d2c4cb70d8476E", ptr %38, align 8
  %39 = getelementptr inbounds [4 x { ptr, ptr }], ptr %10, i64 0, i64 1
  store ptr %12, ptr %39, align 8
  %40 = getelementptr inbounds [4 x { ptr, ptr }], ptr %10, i64 0, i64 1, i32 1
  store ptr @"_ZN59_$LT$core..fmt..Arguments$u20$as$u20$core..fmt..Display$GT$3fmt17hcb392a51a5b68e81E", ptr %40, align 8
  %41 = getelementptr inbounds [4 x { ptr, ptr }], ptr %10, i64 0, i64 2
  store ptr %15, ptr %41, align 8
  %42 = getelementptr inbounds [4 x { ptr, ptr }], ptr %10, i64 0, i64 2, i32 1
  store ptr @"_ZN42_$LT$$RF$T$u20$as$u20$core..fmt..Debug$GT$3fmt17he205b18a68c04c93E", ptr %42, align 8
  %43 = getelementptr inbounds [4 x { ptr, ptr }], ptr %10, i64 0, i64 3
  store ptr %14, ptr %43, align 8
  %44 = getelementptr inbounds [4 x { ptr, ptr }], ptr %10, i64 0, i64 3, i32 1
  store ptr @"_ZN42_$LT$$RF$T$u20$as$u20$core..fmt..Debug$GT$3fmt17he205b18a68c04c93E", ptr %44, align 8
  store ptr @anon.e3c4f13c2bd70693510fdd35fdaddcec.51, ptr %11, align 8, !alias.scope !46, !noalias !49
  %45 = getelementptr inbounds { ptr, i64 }, ptr %11, i64 0, i32 1
  store i64 4, ptr %45, align 8, !alias.scope !46, !noalias !49
  %46 = getelementptr inbounds { { ptr, i64 }, { ptr, i64 }, { ptr, i64 } }, ptr %11, i64 0, i32 2
  store ptr null, ptr %46, align 8, !alias.scope !46, !noalias !49
  %47 = getelementptr inbounds { { ptr, i64 }, { ptr, i64 }, { ptr, i64 } }, ptr %11, i64 0, i32 1
  store ptr %10, ptr %47, align 8, !alias.scope !46, !noalias !49
  %48 = getelementptr inbounds { { ptr, i64 }, { ptr, i64 }, { ptr, i64 } }, ptr %11, i64 0, i32 1, i32 1
  store i64 4, ptr %48, align 8, !alias.scope !46, !noalias !49
  call void @_ZN4core9panicking9panic_fmt17h9b61d05f69f05277E(ptr noalias nocapture noundef nonnull readonly align 8 dereferenceable(48) %11, ptr noalias noundef nonnull readonly align 8 dereferenceable(24) %6) #34
  unreachable
}

; Function Attrs: cold noinline noreturn nonlazybind sanitize_hwaddress uwtable
define hidden void @_ZN4core6result13unwrap_failed17h792f0fca794950e8E(ptr noalias noundef nonnull readonly align 1 %0, i64 noundef %1, ptr noundef nonnull align 1 %2, ptr noalias noundef readonly align 8 dereferenceable(24) %3, ptr noalias noundef readonly align 8 dereferenceable(24) %4) unnamed_addr #14 {
  %6 = alloca [2 x { ptr, ptr }], align 8
  %7 = alloca { { ptr, i64 }, { ptr, i64 }, { ptr, i64 } }, align 8
  %8 = alloca { ptr, ptr }, align 8
  %9 = alloca { ptr, i64 }, align 8
  store ptr %0, ptr %9, align 8
  %10 = getelementptr inbounds { ptr, i64 }, ptr %9, i64 0, i32 1
  store i64 %1, ptr %10, align 8
  store ptr %2, ptr %8, align 8
  %11 = getelementptr inbounds { ptr, ptr }, ptr %8, i64 0, i32 1
  store ptr %3, ptr %11, align 8
  call void @llvm.lifetime.start.p0(i64 48, ptr nonnull %7)
  call void @llvm.lifetime.start.p0(i64 32, ptr nonnull %6)
  store ptr %9, ptr %6, align 8
  %12 = getelementptr inbounds { ptr, ptr }, ptr %6, i64 0, i32 1
  store ptr @"_ZN44_$LT$$RF$T$u20$as$u20$core..fmt..Display$GT$3fmt17h594d2c4cb70d8476E", ptr %12, align 8
  %13 = getelementptr inbounds [2 x { ptr, ptr }], ptr %6, i64 0, i64 1
  store ptr %8, ptr %13, align 8
  %14 = getelementptr inbounds [2 x { ptr, ptr }], ptr %6, i64 0, i64 1, i32 1
  store ptr @"_ZN42_$LT$$RF$T$u20$as$u20$core..fmt..Debug$GT$3fmt17he205b18a68c04c93E", ptr %14, align 8
  store ptr @anon.d3d9c0cc9c7e68c9a212b94d9e4289be.20, ptr %7, align 8, !alias.scope !52, !noalias !55
  %15 = getelementptr inbounds { ptr, i64 }, ptr %7, i64 0, i32 1
  store i64 2, ptr %15, align 8, !alias.scope !52, !noalias !55
  %16 = getelementptr inbounds { { ptr, i64 }, { ptr, i64 }, { ptr, i64 } }, ptr %7, i64 0, i32 2
  store ptr null, ptr %16, align 8, !alias.scope !52, !noalias !55
  %17 = getelementptr inbounds { { ptr, i64 }, { ptr, i64 }, { ptr, i64 } }, ptr %7, i64 0, i32 1
  store ptr %6, ptr %17, align 8, !alias.scope !52, !noalias !55
  %18 = getelementptr inbounds { { ptr, i64 }, { ptr, i64 }, { ptr, i64 } }, ptr %7, i64 0, i32 1, i32 1
  store i64 2, ptr %18, align 8, !alias.scope !52, !noalias !55
  call void @_ZN4core9panicking9panic_fmt17h9b61d05f69f05277E(ptr noalias nocapture noundef nonnull readonly align 8 dereferenceable(48) %7, ptr noalias noundef nonnull readonly align 8 dereferenceable(24) %4) #34
  unreachable
}

; Function Attrs: nonlazybind sanitize_hwaddress uwtable
declare hidden noundef zeroext i1 @"_ZN4core3fmt3num3imp52_$LT$impl$u20$core..fmt..Display$u20$for$u20$u32$GT$3fmt17h289e4d5a7ac40b7bE"(ptr noalias nocapture noundef readonly align 4 dereferenceable(4), ptr noalias noundef align 8 dereferenceable(64)) unnamed_addr #12

; Function Attrs: nofree nosync nounwind nonlazybind sanitize_hwaddress memory(argmem: readwrite, inaccessiblemem: readwrite) uwtable
define hidden void @_ZN4core3ffi5c_str4CStr19from_bytes_with_nul17he6162651285afb81E(ptr noalias nocapture noundef writeonly sret({ i64, [2 x i64] }) align 8 dereferenceable(24) %0, ptr noalias noundef nonnull readonly align 1 %1, i64 noundef %2) unnamed_addr #16 {
  %4 = icmp ult i64 %2, 16
  br i1 %4, label %61, label %5

5:                                                ; preds = %3
  %6 = ptrtoint ptr %1 to i64
  %7 = add i64 %6, 7
  %8 = and i64 %7, -8
  %9 = sub i64 %8, %6
  %10 = icmp ult i64 %9, 8
  tail call void @llvm.assume(i1 %10)
  %11 = icmp eq i64 %9, 0
  br i1 %11, label %20, label %12

12:                                               ; preds = %17, %5
  %13 = phi i64 [ %18, %17 ], [ 0, %5 ]
  %14 = getelementptr inbounds [0 x i8], ptr %1, i64 0, i64 %13
  %15 = load i8, ptr %14, align 1, !alias.scope !58, !noundef !14
  %16 = icmp eq i8 %15, 0
  br i1 %16, label %73, label %17

17:                                               ; preds = %12
  %18 = add nuw i64 %13, 1
  %19 = icmp eq i64 %18, %9
  br i1 %19, label %22, label %12

20:                                               ; preds = %5
  %21 = add i64 %2, -16
  br label %25

22:                                               ; preds = %17
  %23 = add i64 %2, -16
  %24 = icmp ugt i64 %9, %23
  br i1 %24, label %43, label %25

25:                                               ; preds = %22, %20
  %26 = phi i64 [ %21, %20 ], [ %23, %22 ]
  br label %27

27:                                               ; preds = %58, %25
  %28 = phi i64 [ %59, %58 ], [ %9, %25 ]
  %29 = getelementptr inbounds i8, ptr %1, i64 %28
  %30 = load i64, ptr %29, align 8, !alias.scope !63, !noundef !14
  %31 = add i64 %28, 8
  %32 = getelementptr inbounds i8, ptr %1, i64 %31
  %33 = load i64, ptr %32, align 8, !alias.scope !63, !noundef !14
  %34 = add i64 %30, -72340172838076673
  %35 = xor i64 %30, -1
  %36 = and i64 %34, %35
  %37 = add i64 %33, -72340172838076673
  %38 = xor i64 %33, -1
  %39 = and i64 %37, %38
  %40 = or i64 %39, %36
  %41 = and i64 %40, -9187201950435737472
  %42 = icmp eq i64 %41, 0
  br i1 %42, label %58, label %43

43:                                               ; preds = %58, %27, %22
  %44 = phi i64 [ %9, %22 ], [ %28, %27 ], [ %59, %58 ]
  %45 = getelementptr inbounds i8, ptr %1, i64 %44
  %46 = sub i64 %2, %44
  %47 = icmp eq i64 %44, %2
  br i1 %47, label %71, label %48

48:                                               ; preds = %53, %43
  %49 = phi i64 [ %54, %53 ], [ 0, %43 ]
  %50 = getelementptr inbounds [0 x i8], ptr %45, i64 0, i64 %49
  %51 = load i8, ptr %50, align 1, !alias.scope !64, !noundef !14
  %52 = icmp eq i8 %51, 0
  br i1 %52, label %56, label %53

53:                                               ; preds = %48
  %54 = add nuw i64 %49, 1
  %55 = icmp eq i64 %54, %46
  br i1 %55, label %71, label %48

56:                                               ; preds = %48
  %57 = add i64 %49, %44
  br label %73

58:                                               ; preds = %27
  %59 = add i64 %28, 16
  %60 = icmp ugt i64 %59, %26
  br i1 %60, label %43, label %27

61:                                               ; preds = %3
  %62 = icmp eq i64 %2, 0
  br i1 %62, label %71, label %63

63:                                               ; preds = %68, %61
  %64 = phi i64 [ %69, %68 ], [ 0, %61 ]
  %65 = getelementptr inbounds [0 x i8], ptr %1, i64 0, i64 %64
  %66 = load i8, ptr %65, align 1, !alias.scope !67, !noundef !14
  %67 = icmp eq i8 %66, 0
  br i1 %67, label %73, label %68

68:                                               ; preds = %63
  %69 = add nuw nsw i64 %64, 1
  %70 = icmp eq i64 %69, %2
  br i1 %70, label %71, label %63

71:                                               ; preds = %68, %61, %53, %43
  %72 = getelementptr inbounds { [1 x i64], { i64, i64 } }, ptr %0, i64 0, i32 1
  store i64 1, ptr %72, align 8
  br label %77

73:                                               ; preds = %63, %56, %12
  %74 = phi i64 [ %57, %56 ], [ %64, %63 ], [ %13, %12 ]
  %75 = add i64 %74, 1
  %76 = icmp eq i64 %75, %2
  br i1 %76, label %82, label %79

77:                                               ; preds = %82, %79, %71
  %78 = phi i64 [ 0, %82 ], [ 1, %79 ], [ 1, %71 ]
  store i64 %78, ptr %0, align 8
  ret void

79:                                               ; preds = %73
  %80 = getelementptr inbounds { [1 x i64], { i64, i64 } }, ptr %0, i64 0, i32 1
  store i64 0, ptr %80, align 8
  %81 = getelementptr inbounds { [1 x i64], { i64, i64 } }, ptr %0, i64 0, i32 1, i32 1
  store i64 %74, ptr %81, align 8
  br label %77

82:                                               ; preds = %73
  %83 = getelementptr inbounds { [1 x i64], { ptr, i64 } }, ptr %0, i64 0, i32 1
  store ptr %1, ptr %83, align 8
  %84 = getelementptr inbounds { [1 x i64], { ptr, i64 } }, ptr %0, i64 0, i32 1, i32 1
  store i64 %2, ptr %84, align 8
  br label %77
}

; Function Attrs: cold noinline noreturn nonlazybind sanitize_hwaddress uwtable
define hidden void @_ZN4core6option13expect_failed17h10200cf5aaa1fc01E(ptr noalias noundef nonnull readonly align 1 %0, i64 noundef %1, ptr noalias noundef readonly align 8 dereferenceable(24) %2) unnamed_addr #14 {
  %4 = alloca [1 x { ptr, ptr }], align 8
  %5 = alloca { { ptr, i64 }, { ptr, i64 }, { ptr, i64 } }, align 8
  %6 = alloca { ptr, i64 }, align 8
  call void @llvm.lifetime.start.p0(i64 16, ptr nonnull %6)
  store ptr %0, ptr %6, align 8
  %7 = getelementptr inbounds { ptr, i64 }, ptr %6, i64 0, i32 1
  store i64 %1, ptr %7, align 8
  call void @llvm.lifetime.start.p0(i64 48, ptr nonnull %5)
  call void @llvm.lifetime.start.p0(i64 16, ptr nonnull %4)
  store ptr %6, ptr %4, align 8
  %8 = getelementptr inbounds { ptr, ptr }, ptr %4, i64 0, i32 1
  store ptr @"_ZN44_$LT$$RF$T$u20$as$u20$core..fmt..Display$GT$3fmt17h594d2c4cb70d8476E", ptr %8, align 8
  store ptr @anon.1da5c16c6583322d206e035d5fb9ac4e.36, ptr %5, align 8, !alias.scope !70, !noalias !73
  %9 = getelementptr inbounds { ptr, i64 }, ptr %5, i64 0, i32 1
  store i64 1, ptr %9, align 8, !alias.scope !70, !noalias !73
  %10 = getelementptr inbounds { { ptr, i64 }, { ptr, i64 }, { ptr, i64 } }, ptr %5, i64 0, i32 2
  store ptr null, ptr %10, align 8, !alias.scope !70, !noalias !73
  %11 = getelementptr inbounds { { ptr, i64 }, { ptr, i64 }, { ptr, i64 } }, ptr %5, i64 0, i32 1
  store ptr %4, ptr %11, align 8, !alias.scope !70, !noalias !73
  %12 = getelementptr inbounds { { ptr, i64 }, { ptr, i64 }, { ptr, i64 } }, ptr %5, i64 0, i32 1, i32 1
  store i64 1, ptr %12, align 8, !alias.scope !70, !noalias !73
  call void @_ZN4core9panicking9panic_fmt17h9b61d05f69f05277E(ptr noalias nocapture noundef nonnull readonly align 8 dereferenceable(48) %5, ptr noalias noundef nonnull readonly align 8 dereferenceable(24) %2) #34
  unreachable
}

; Function Attrs: inlinehint nofree norecurse noreturn nounwind nonlazybind sanitize_hwaddress memory(argmem: read, inaccessiblemem: readwrite) uwtable
declare hidden noundef zeroext i1 @_ZN4core3ops8function6FnOnce9call_once17hc683de79ed776df0E.llvm.12949626036818284312(ptr noalias noundef readonly align 8 dereferenceable(8), ptr noalias nocapture readnone align 8) unnamed_addr #17

; Function Attrs: nonlazybind sanitize_hwaddress uwtable
define hidden noundef i32 @__rust_start_panic(ptr noundef nonnull align 1 %0, ptr noalias nocapture noundef readonly align 8 dereferenceable(24) %1) unnamed_addr #12 personality ptr @rust_eh_personality {
  %3 = getelementptr inbounds ptr, ptr %1, i64 3
  %4 = load ptr, ptr %3, align 8, !invariant.load !14, !nonnull !14
  %5 = tail call { ptr, ptr } %4(ptr noundef nonnull align 1 %0)
  %6 = extractvalue { ptr, ptr } %5, 0
  %7 = extractvalue { ptr, ptr } %5, 1
  %8 = icmp ne ptr %6, null
  tail call void @llvm.assume(i1 %8)
  %9 = icmp ne ptr %7, null
  tail call void @llvm.assume(i1 %9)
  %10 = load volatile i8, ptr @__rust_no_alloc_shim_is_unstable, align 1, !noalias !76
  %11 = tail call noundef align 8 dereferenceable_or_null(56) ptr @__rust_alloc(i64 noundef 56, i64 noundef 8) #21, !noalias !76
  %12 = icmp eq ptr %11, null
  br i1 %12, label %13, label %37

13:                                               ; preds = %2
  invoke void @_ZN5alloc5alloc18handle_alloc_error17h673e7e4436424ea8E(i64 noundef 8, i64 noundef 56) #34
          to label %14 unwind label %15, !noalias !76

14:                                               ; preds = %13
  unreachable

15:                                               ; preds = %13
  %16 = landingpad { ptr, i32 }
          cleanup
  %17 = load ptr, ptr %7, align 8, !invariant.load !14, !noalias !81, !nonnull !14
  invoke void %17(ptr noundef nonnull align 1 %6)
          to label %27 unwind label %18, !noalias !81

18:                                               ; preds = %15
  %19 = landingpad { ptr, i32 }
          filter [0 x ptr] zeroinitializer
  %20 = getelementptr inbounds i64, ptr %7, i64 1
  %21 = load i64, ptr %20, align 8, !range !82, !invariant.load !14, !noalias !81
  %22 = getelementptr inbounds i64, ptr %7, i64 2
  %23 = load i64, ptr %22, align 8, !range !83, !invariant.load !14, !noalias !81
  %24 = icmp ult i64 %23, -9223372036854775807
  tail call void @llvm.assume(i1 %24), !noalias !81
  %25 = icmp eq i64 %21, 0
  br i1 %25, label %35, label %26

26:                                               ; preds = %18
  tail call void @__rust_dealloc(ptr noundef nonnull %6, i64 noundef %21, i64 noundef %23) #21, !noalias !81
  br label %35

27:                                               ; preds = %15
  %28 = getelementptr inbounds i64, ptr %7, i64 1
  %29 = load i64, ptr %28, align 8, !range !82, !invariant.load !14, !noalias !81
  %30 = getelementptr inbounds i64, ptr %7, i64 2
  %31 = load i64, ptr %30, align 8, !range !83, !invariant.load !14, !noalias !81
  %32 = icmp ult i64 %31, -9223372036854775807
  tail call void @llvm.assume(i1 %32), !noalias !81
  %33 = icmp eq i64 %29, 0
  br i1 %33, label %36, label %34

34:                                               ; preds = %27
  tail call void @__rust_dealloc(ptr noundef nonnull %6, i64 noundef %29, i64 noundef %31) #21, !noalias !81
  br label %36

35:                                               ; preds = %26, %18
  tail call void @_ZN4core9panicking16panic_in_cleanup17h0cc56309fdf70f59E() #11, !noalias !81
  unreachable

36:                                               ; preds = %34, %27
  resume { ptr, i32 } %16

37:                                               ; preds = %2
  store i64 5570770221508416340, ptr %11, align 8, !noalias !84
  %38 = getelementptr inbounds i8, ptr %11, i64 8
  store ptr @_ZN12panic_unwind8real_imp5panic17exception_cleanup17h406f90f0358fefebE, ptr %38, align 8, !noalias !84
  %39 = getelementptr inbounds i8, ptr %11, i64 16
  tail call void @llvm.memset.p0.i64(ptr noundef nonnull align 8 dereferenceable(16) %39, i8 0, i64 16, i1 false), !noalias !84
  %40 = getelementptr inbounds i8, ptr %11, i64 32
  store ptr @_ZN12panic_unwind8real_imp6CANARY17hadc477be0df8b622E, ptr %40, align 8, !noalias !84
  %41 = getelementptr inbounds i8, ptr %11, i64 40
  store ptr %6, ptr %41, align 8, !noalias !84
  %42 = getelementptr inbounds i8, ptr %11, i64 48
  store ptr %7, ptr %42, align 8, !noalias !84
  %43 = tail call noundef i32 @_Unwind_RaiseException(ptr noundef nonnull %11), !range !85
  ret i32 %43
}

; Function Attrs: noreturn nounwind nonlazybind sanitize_hwaddress uwtable
declare hidden void @_ZN12panic_unwind8real_imp5panic17exception_cleanup17h406f90f0358fefebE(i32, ptr noundef) unnamed_addr #18

; Function Attrs: nonlazybind sanitize_hwaddress uwtable
declare noundef i32 @_Unwind_RaiseException(ptr noundef) unnamed_addr #12

; Function Attrs: nonlazybind sanitize_hwaddress uwtable
define hidden fastcc void @"_ZN4core3ptr42drop_in_place$LT$std..io..error..Error$GT$17h99f3a84feb436a8eE.llvm.3100245818866642629"(ptr %0) unnamed_addr #12 personality ptr @rust_eh_personality {
  %2 = icmp ne ptr %0, null
  tail call void @llvm.assume(i1 %2)
  %3 = ptrtoint ptr %0 to i64
  %4 = and i64 %3, 3
  switch i64 %4, label %5 [
    i64 2, label %38
    i64 3, label %6
    i64 0, label %38
    i64 1, label %10
  ]

5:                                                ; preds = %1
  unreachable

6:                                                ; preds = %1
  %7 = lshr i64 %3, 32
  %8 = trunc i64 %7 to i32
  %9 = icmp ult i32 %8, 41
  tail call void @llvm.assume(i1 %9)
  br label %38

10:                                               ; preds = %1
  %11 = getelementptr i8, ptr %0, i64 -1
  %12 = icmp ne ptr %11, null
  tail call void @llvm.assume(i1 %12)
  %13 = load ptr, ptr %11, align 8, !noundef !14
  %14 = getelementptr i8, ptr %0, i64 7
  %15 = load ptr, ptr %14, align 8, !nonnull !14, !align !15, !noundef !14
  %16 = load ptr, ptr %15, align 8, !invariant.load !14, !nonnull !14
  invoke void %16(ptr noundef nonnull align 1 %13)
          to label %27 unwind label %17

17:                                               ; preds = %10
  %18 = landingpad { ptr, i32 }
          cleanup
  %19 = icmp ne ptr %13, null
  tail call void @llvm.assume(i1 %19)
  %20 = getelementptr inbounds i64, ptr %15, i64 1
  %21 = load i64, ptr %20, align 8, !range !82, !invariant.load !14
  %22 = getelementptr inbounds i64, ptr %15, i64 2
  %23 = load i64, ptr %22, align 8, !range !83, !invariant.load !14
  %24 = icmp ult i64 %23, -9223372036854775807
  tail call void @llvm.assume(i1 %24)
  %25 = icmp eq i64 %21, 0
  br i1 %25, label %36, label %26

26:                                               ; preds = %17
  tail call void @__rust_dealloc(ptr noundef nonnull %13, i64 noundef %21, i64 noundef %23) #21
  br label %36

27:                                               ; preds = %10
  %28 = icmp ne ptr %13, null
  tail call void @llvm.assume(i1 %28)
  %29 = getelementptr inbounds i64, ptr %15, i64 1
  %30 = load i64, ptr %29, align 8, !range !82, !invariant.load !14
  %31 = getelementptr inbounds i64, ptr %15, i64 2
  %32 = load i64, ptr %31, align 8, !range !83, !invariant.load !14
  %33 = icmp ult i64 %32, -9223372036854775807
  tail call void @llvm.assume(i1 %33)
  %34 = icmp eq i64 %30, 0
  br i1 %34, label %37, label %35

35:                                               ; preds = %27
  tail call void @__rust_dealloc(ptr noundef nonnull %13, i64 noundef %30, i64 noundef %32) #21
  br label %37

36:                                               ; preds = %26, %17
  tail call void @__rust_dealloc(ptr noundef nonnull %11, i64 noundef 24, i64 noundef 8) #21
  resume { ptr, i32 } %18

37:                                               ; preds = %35, %27
  tail call void @__rust_dealloc(ptr noundef nonnull %11, i64 noundef 24, i64 noundef 8) #21
  br label %38

38:                                               ; preds = %37, %6, %1, %1
  ret void
}

; Function Attrs: cold nounwind nonlazybind sanitize_hwaddress uwtable
define hidden void @_ZN3std3sys4unix5locks11futex_mutex5Mutex14lock_contended17hd04b1a3ad9b934f4E(ptr noundef nonnull align 4 %0) unnamed_addr #19 personality ptr @rust_eh_personality {
  %2 = alloca { i64, [2 x i64] }, align 8
  %3 = load atomic i32, ptr %0 monotonic, align 4
  %4 = icmp eq i32 %3, 1
  br i1 %4, label %5, label %12

5:                                                ; preds = %5, %1
  %6 = phi i32 [ %7, %5 ], [ 100, %1 ]
  tail call void @llvm.x86.sse2.pause() #21
  %7 = add nsw i32 %6, -1
  %8 = load atomic i32, ptr %0 monotonic, align 4
  %9 = icmp ne i32 %8, 1
  %10 = icmp eq i32 %7, 0
  %11 = select i1 %9, i1 true, i1 %10
  br i1 %11, label %12, label %5

12:                                               ; preds = %5, %1
  %13 = phi i32 [ %3, %1 ], [ %8, %5 ]
  %14 = icmp eq i32 %13, 0
  br i1 %14, label %15, label %19

15:                                               ; preds = %12
  %16 = cmpxchg ptr %0, i32 0, i32 1 acquire monotonic, align 4
  %17 = extractvalue { i32, i1 } %16, 1
  %18 = extractvalue { i32, i1 } %16, 0
  br i1 %17, label %22, label %19

19:                                               ; preds = %15, %12
  %20 = phi i32 [ %18, %15 ], [ %13, %12 ]
  %21 = getelementptr inbounds { [1 x i64], { i64, i64 } }, ptr %2, i64 0, i32 1
  br label %23

22:                                               ; preds = %26, %15
  ret void

23:                                               ; preds = %46, %19
  %24 = phi i32 [ %20, %19 ], [ %47, %46 ]
  %25 = icmp eq i32 %24, 2
  br i1 %25, label %29, label %26

26:                                               ; preds = %23
  %27 = atomicrmw xchg ptr %0, i32 2 acquire, align 4
  %28 = icmp eq i32 %27, 0
  br i1 %28, label %22, label %29

29:                                               ; preds = %26, %23
  call void @llvm.lifetime.start.p0(i64 24, ptr nonnull %2)
  store i64 0, ptr %2, align 8
  br label %30

30:                                               ; preds = %39, %29
  %31 = load atomic i32, ptr %0 monotonic, align 4
  %32 = icmp eq i32 %31, 2
  br i1 %32, label %33, label %43

33:                                               ; preds = %30
  %34 = load i64, ptr %2, align 8, !range !86, !noundef !14
  %35 = icmp eq i64 %34, 0
  %36 = select i1 %35, ptr null, ptr %21
  %37 = call noundef i64 (i64, ...) @syscall(i64 noundef 202, ptr noundef nonnull %0, i32 noundef 137, i32 noundef 2, ptr noundef %36, ptr noundef null, i32 noundef -1) #21
  %38 = icmp slt i64 %37, 0
  br i1 %38, label %39, label %43

39:                                               ; preds = %33
  %40 = call noundef ptr @__errno_location() #21
  %41 = load i32, ptr %40, align 4, !noundef !14
  %42 = icmp eq i32 %41, 4
  br i1 %42, label %30, label %43

43:                                               ; preds = %39, %33, %30
  call void @llvm.lifetime.end.p0(i64 24, ptr nonnull %2)
  %44 = load atomic i32, ptr %0 monotonic, align 4
  %45 = icmp eq i32 %44, 1
  br i1 %45, label %48, label %46

46:                                               ; preds = %48, %43
  %47 = phi i32 [ %44, %43 ], [ %51, %48 ]
  br label %23

48:                                               ; preds = %48, %43
  %49 = phi i32 [ %50, %48 ], [ 100, %43 ]
  tail call void @llvm.x86.sse2.pause() #21
  %50 = add nsw i32 %49, -1
  %51 = load atomic i32, ptr %0 monotonic, align 4
  %52 = icmp ne i32 %51, 1
  %53 = icmp eq i32 %50, 0
  %54 = select i1 %52, i1 true, i1 %53
  br i1 %54, label %46, label %48
}

; Function Attrs: nounwind nonlazybind sanitize_hwaddress uwtable
declare noundef i64 @syscall(i64 noundef, ...) unnamed_addr #20

; Function Attrs: nounwind
declare void @llvm.x86.sse2.pause() unnamed_addr #21

; Function Attrs: nounwind nonlazybind sanitize_hwaddress uwtable
declare noundef ptr @__errno_location() unnamed_addr #20

; Function Attrs: inlinehint nonlazybind sanitize_hwaddress uwtable
define hidden fastcc void @"_ZN3std3sys4unix2os6getenv28_$u7b$$u7b$closure$u7d$$u7d$17h34940eb7c7f03a10E.llvm.3100245818866642629"(ptr noalias nocapture noundef writeonly align 8 dereferenceable(24) %0, ptr noalias nocapture noundef nonnull readonly align 1 %1) unnamed_addr #22 personality ptr @rust_eh_personality {
  %3 = load atomic i32, ptr @_ZN3std3sys4unix2os8ENV_LOCK17h89f5d625b586016aE.llvm.3100245818866642629 monotonic, align 4
  %4 = icmp ult i32 %3, 1073741822
  br i1 %4, label %6, label %5

5:                                                ; preds = %6, %2
  tail call void @_ZN3std3sys4unix5locks12futex_rwlock6RwLock14read_contended17hed304d1df22d9debE(ptr noundef nonnull align 4 @_ZN3std3sys4unix2os8ENV_LOCK17h89f5d625b586016aE.llvm.3100245818866642629)
  br label %10

6:                                                ; preds = %2
  %7 = add nuw nsw i32 %3, 1
  %8 = cmpxchg weak ptr @_ZN3std3sys4unix2os8ENV_LOCK17h89f5d625b586016aE.llvm.3100245818866642629, i32 %3, i32 %7 acquire monotonic, align 4
  %9 = extractvalue { i32, i1 } %8, 1
  br i1 %9, label %10, label %5

10:                                               ; preds = %6, %5
  %11 = load atomic i8, ptr getelementptr inbounds (<{ [9 x i8], [3 x i8] }>, ptr @_ZN3std3sys4unix2os8ENV_LOCK17h89f5d625b586016aE.llvm.3100245818866642629, i64 0, i32 0, i64 8) monotonic, align 4, !noalias !87
  %12 = tail call noundef ptr @getenv(ptr noundef nonnull %1) #21
  %13 = icmp eq ptr %12, null
  br i1 %13, label %14, label %15

14:                                               ; preds = %10
  store i64 -9223372036854775808, ptr %0, align 8
  br label %28

15:                                               ; preds = %10
  %16 = tail call noundef i64 @strlen(ptr noundef nonnull dereferenceable(1) %12) #21
  %17 = icmp eq i64 %16, 0
  br i1 %17, label %42, label %18

18:                                               ; preds = %15
  %19 = icmp slt i64 %16, 0
  br i1 %19, label %24, label %20

20:                                               ; preds = %18
  %21 = load volatile i8, ptr @__rust_no_alloc_shim_is_unstable, align 1
  %22 = tail call noundef ptr @__rust_alloc(i64 noundef %16, i64 noundef 1) #21
  %23 = icmp eq ptr %22, null
  br i1 %23, label %26, label %42

24:                                               ; preds = %18
  invoke void @_ZN5alloc7raw_vec17capacity_overflow17h646143933b77847dE() #34
          to label %25 unwind label %35

25:                                               ; preds = %24
  unreachable

26:                                               ; preds = %20
  invoke void @_ZN5alloc5alloc18handle_alloc_error17h673e7e4436424ea8E(i64 noundef 1, i64 noundef %16) #34
          to label %27 unwind label %35

27:                                               ; preds = %26
  unreachable

28:                                               ; preds = %42, %14
  %29 = atomicrmw sub ptr @_ZN3std3sys4unix2os8ENV_LOCK17h89f5d625b586016aE.llvm.3100245818866642629, i32 1 release, align 4, !noalias !90
  %30 = add i32 %29, -1
  %31 = and i32 %30, -1073741825
  %32 = icmp eq i32 %31, -2147483648
  br i1 %32, label %33, label %34

33:                                               ; preds = %28
  tail call void @_ZN3std3sys4unix5locks12futex_rwlock6RwLock22wake_writer_or_readers17ha46364ce032cd417E(ptr noundef nonnull align 4 @_ZN3std3sys4unix2os8ENV_LOCK17h89f5d625b586016aE.llvm.3100245818866642629, i32 noundef %30), !noalias !90
  br label %34

34:                                               ; preds = %33, %28
  ret void

35:                                               ; preds = %26, %24
  %36 = landingpad { ptr, i32 }
          cleanup
  %37 = atomicrmw sub ptr @_ZN3std3sys4unix2os8ENV_LOCK17h89f5d625b586016aE.llvm.3100245818866642629, i32 1 release, align 4, !noalias !93
  %38 = add i32 %37, -1
  %39 = and i32 %38, -1073741825
  %40 = icmp eq i32 %39, -2147483648
  br i1 %40, label %41, label %48

41:                                               ; preds = %35
  invoke void @_ZN3std3sys4unix5locks12futex_rwlock6RwLock22wake_writer_or_readers17ha46364ce032cd417E(ptr noundef nonnull align 4 @_ZN3std3sys4unix2os8ENV_LOCK17h89f5d625b586016aE.llvm.3100245818866642629, i32 noundef %38)
          to label %48 unwind label %46

42:                                               ; preds = %20, %15
  %43 = phi ptr [ inttoptr (i64 1 to ptr), %15 ], [ %22, %20 ]
  tail call void @llvm.memcpy.p0.p0.i64(ptr nonnull align 1 %43, ptr nonnull align 1 %12, i64 %16, i1 false)
  store i64 %16, ptr %0, align 8
  %44 = getelementptr inbounds i8, ptr %0, i64 8
  store ptr %43, ptr %44, align 8
  %45 = getelementptr inbounds i8, ptr %0, i64 16
  store i64 %16, ptr %45, align 8
  br label %28

46:                                               ; preds = %41
  %47 = landingpad { ptr, i32 }
          filter [0 x ptr] zeroinitializer
  tail call void @_ZN4core9panicking16panic_in_cleanup17h0cc56309fdf70f59E() #11
  unreachable

48:                                               ; preds = %41, %35
  resume { ptr, i32 } %36
}

; Function Attrs: cold nonlazybind sanitize_hwaddress uwtable
define hidden void @_ZN3std3sys4unix5locks12futex_rwlock6RwLock14read_contended17hed304d1df22d9debE(ptr noundef nonnull align 4 %0) unnamed_addr #23 personality ptr @rust_eh_personality {
  %2 = alloca { i64, [2 x i64] }, align 8
  %3 = alloca { { ptr, i64 }, { ptr, i64 }, { ptr, i64 } }, align 8
  %4 = load atomic i32, ptr %0 monotonic, align 4
  %5 = icmp eq i32 %4, 1073741823
  br i1 %5, label %6, label %13

6:                                                ; preds = %6, %1
  %7 = phi i32 [ %8, %6 ], [ 100, %1 ]
  tail call void @llvm.x86.sse2.pause() #21
  %8 = add nsw i32 %7, -1
  %9 = load atomic i32, ptr %0 monotonic, align 4
  %10 = icmp ne i32 %9, 1073741823
  %11 = icmp eq i32 %8, 0
  %12 = select i1 %10, i1 true, i1 %11
  br i1 %12, label %13, label %6

13:                                               ; preds = %6, %1
  %14 = phi i32 [ %4, %1 ], [ %9, %6 ]
  %15 = getelementptr inbounds { [1 x i64], { i64, i64 } }, ptr %2, i64 0, i32 1
  br label %16

16:                                               ; preds = %59, %13
  %17 = phi i32 [ %14, %13 ], [ %60, %59 ]
  %18 = and i32 %17, 1073741823
  %19 = icmp ult i32 %18, 1073741822
  %20 = and i32 %17, 1073741824
  %21 = icmp eq i32 %20, 0
  %22 = icmp ult i32 %17, 1073741824
  %23 = and i1 %22, %19
  br i1 %23, label %26, label %24

24:                                               ; preds = %16
  %25 = icmp eq i32 %18, 1073741822
  br i1 %25, label %33, label %31

26:                                               ; preds = %16
  %27 = add nuw nsw i32 %17, 1
  %28 = cmpxchg weak ptr %0, i32 %17, i32 %27 acquire monotonic, align 4
  %29 = extractvalue { i32, i1 } %28, 1
  %30 = extractvalue { i32, i1 } %28, 0
  br i1 %29, label %68, label %59

31:                                               ; preds = %24
  %32 = or i32 %17, 1073741824
  br i1 %21, label %38, label %42

33:                                               ; preds = %24
  call void @llvm.lifetime.start.p0(i64 48, ptr nonnull %3)
  store ptr @anon.49f5641cf34e9cf781d07370d03020be.86.llvm.3100245818866642629, ptr %3, align 8
  %34 = getelementptr inbounds { ptr, i64 }, ptr %3, i64 0, i32 1
  store i64 1, ptr %34, align 8
  %35 = getelementptr inbounds { { ptr, i64 }, { ptr, i64 }, { ptr, i64 } }, ptr %3, i64 0, i32 2
  store ptr null, ptr %35, align 8
  %36 = getelementptr inbounds { { ptr, i64 }, { ptr, i64 }, { ptr, i64 } }, ptr %3, i64 0, i32 1
  store ptr @anon.49f5641cf34e9cf781d07370d03020be.0.llvm.3100245818866642629, ptr %36, align 8
  %37 = getelementptr inbounds { { ptr, i64 }, { ptr, i64 }, { ptr, i64 } }, ptr %3, i64 0, i32 1, i32 1
  store i64 0, ptr %37, align 8
  call void @_ZN4core9panicking9panic_fmt17h9b61d05f69f05277E(ptr noalias nocapture noundef nonnull readonly align 8 dereferenceable(48) %3, ptr noalias noundef nonnull readonly align 8 dereferenceable(24) @anon.49f5641cf34e9cf781d07370d03020be.88.llvm.3100245818866642629) #34
  unreachable

38:                                               ; preds = %31
  %39 = cmpxchg ptr %0, i32 %17, i32 %32 monotonic monotonic, align 4
  %40 = extractvalue { i32, i1 } %39, 1
  %41 = extractvalue { i32, i1 } %39, 0
  br i1 %40, label %42, label %59

42:                                               ; preds = %38, %31
  call void @llvm.lifetime.start.p0(i64 24, ptr nonnull %2)
  store i64 0, ptr %2, align 8
  br label %43

43:                                               ; preds = %52, %42
  %44 = load atomic i32, ptr %0 monotonic, align 4
  %45 = icmp eq i32 %44, %32
  br i1 %45, label %46, label %56

46:                                               ; preds = %43
  %47 = load i64, ptr %2, align 8, !range !86, !noundef !14
  %48 = icmp eq i64 %47, 0
  %49 = select i1 %48, ptr null, ptr %15
  %50 = call noundef i64 (i64, ...) @syscall(i64 noundef 202, ptr noundef nonnull %0, i32 noundef 137, i32 noundef %32, ptr noundef %49, ptr noundef null, i32 noundef -1) #21
  %51 = icmp slt i64 %50, 0
  br i1 %51, label %52, label %56

52:                                               ; preds = %46
  %53 = call noundef ptr @__errno_location() #21
  %54 = load i32, ptr %53, align 4, !noundef !14
  %55 = icmp eq i32 %54, 4
  br i1 %55, label %43, label %56

56:                                               ; preds = %52, %46, %43
  call void @llvm.lifetime.end.p0(i64 24, ptr nonnull %2)
  %57 = load atomic i32, ptr %0 monotonic, align 4
  %58 = icmp eq i32 %57, 1073741823
  br i1 %58, label %61, label %59

59:                                               ; preds = %61, %56, %38, %26
  %60 = phi i32 [ %41, %38 ], [ %30, %26 ], [ %57, %56 ], [ %64, %61 ]
  br label %16

61:                                               ; preds = %61, %56
  %62 = phi i32 [ %63, %61 ], [ 100, %56 ]
  tail call void @llvm.x86.sse2.pause() #21
  %63 = add nsw i32 %62, -1
  %64 = load atomic i32, ptr %0 monotonic, align 4
  %65 = icmp ne i32 %64, 1073741823
  %66 = icmp eq i32 %63, 0
  %67 = select i1 %65, i1 true, i1 %66
  br i1 %67, label %59, label %61

68:                                               ; preds = %26
  ret void
}

; Function Attrs: nofree nounwind nonlazybind sanitize_hwaddress memory(read) uwtable
declare noundef ptr @getenv(ptr nocapture noundef) unnamed_addr #24

; Function Attrs: cold nonlazybind sanitize_hwaddress uwtable
define hidden void @_ZN3std3sys4unix5locks12futex_rwlock6RwLock22wake_writer_or_readers17ha46364ce032cd417E(ptr noundef nonnull align 4 %0, i32 noundef %1) unnamed_addr #23 {
  %3 = and i32 %1, 1073741823
  %4 = icmp eq i32 %3, 0
  br i1 %4, label %5, label %7

5:                                                ; preds = %2
  %6 = icmp eq i32 %1, -2147483648
  br i1 %6, label %8, label %12

7:                                                ; preds = %2
  tail call void @_ZN4core9panicking5panic17h270d4600dc7bb3f1E(ptr noalias noundef nonnull readonly align 1 @anon.49f5641cf34e9cf781d07370d03020be.89.llvm.3100245818866642629, i64 noundef 36, ptr noalias noundef nonnull readonly align 8 dereferenceable(24) @anon.49f5641cf34e9cf781d07370d03020be.90.llvm.3100245818866642629) #34
  unreachable

8:                                                ; preds = %5
  %9 = cmpxchg ptr %0, i32 -2147483648, i32 0 monotonic monotonic, align 4
  %10 = extractvalue { i32, i1 } %9, 1
  %11 = extractvalue { i32, i1 } %9, 0
  br i1 %10, label %14, label %12

12:                                               ; preds = %8, %5
  %13 = phi i32 [ %1, %5 ], [ %11, %8 ]
  switch i32 %13, label %18 [
    i32 -1073741824, label %19
    i32 1073741824, label %27
  ]

14:                                               ; preds = %8
  %15 = getelementptr inbounds { { i32 }, { i32 } }, ptr %0, i64 0, i32 1
  %16 = atomicrmw add ptr %15, i32 1 release, align 4
  %17 = tail call noundef i64 (i64, ...) @syscall(i64 noundef 202, ptr noundef nonnull %15, i32 noundef 129, i32 noundef 1) #21
  br label %18

18:                                               ; preds = %30, %27, %22, %19, %14, %12
  ret void

19:                                               ; preds = %12
  %20 = cmpxchg ptr %0, i32 -1073741824, i32 1073741824 monotonic monotonic, align 4
  %21 = extractvalue { i32, i1 } %20, 1
  br i1 %21, label %22, label %18

22:                                               ; preds = %19
  %23 = getelementptr inbounds { { i32 }, { i32 } }, ptr %0, i64 0, i32 1
  %24 = atomicrmw add ptr %23, i32 1 release, align 4
  %25 = tail call noundef i64 (i64, ...) @syscall(i64 noundef 202, ptr noundef nonnull %23, i32 noundef 129, i32 noundef 1) #21
  %26 = icmp sgt i64 %25, 0
  br i1 %26, label %18, label %27

27:                                               ; preds = %22, %12
  %28 = cmpxchg ptr %0, i32 1073741824, i32 0 monotonic monotonic, align 4
  %29 = extractvalue { i32, i1 } %28, 1
  br i1 %29, label %30, label %18

30:                                               ; preds = %27
  %31 = tail call noundef i64 (i64, ...) @syscall(i64 noundef 202, ptr noundef nonnull %0, i32 noundef 129, i32 noundef 2147483647) #21
  br label %18
}

; Function Attrs: nonlazybind sanitize_hwaddress uwtable
define hidden void @_ZN3std9panicking12default_hook17h0881133c5cc32d3cE(ptr noalias nocapture noundef readonly align 8 dereferenceable(40) %0) unnamed_addr #12 personality ptr @rust_eh_personality {
  %2 = alloca { {} }, align 1
  %3 = alloca ptr, align 8
  %4 = alloca { ptr, i8 }, align 8
  %5 = alloca ptr, align 8
  %6 = alloca ptr, align 8
  %7 = alloca { ptr, ptr, ptr, ptr }, align 8
  %8 = alloca { ptr, i64 }, align 8
  %9 = alloca ptr, align 8
  %10 = alloca { ptr, i64 }, align 8
  %11 = alloca ptr, align 8
  %12 = alloca i8, align 1
  call void @llvm.lifetime.start.p0(i64 1, ptr nonnull %12)
  %13 = getelementptr inbounds { { ptr, ptr }, ptr, ptr, i8, i8, [6 x i8] }, ptr %0, i64 0, i32 4
  %14 = load i8, ptr %13, align 1, !range !96, !noundef !14
  %15 = icmp eq i8 %14, 0
  br i1 %15, label %16, label %19

16:                                               ; preds = %1
  %17 = load i64, ptr @_ZN3std9panicking11panic_count17LOCAL_PANIC_COUNT7__getit3VAL17ha70c7fdbb65d7f5fE.0.llvm.11955502528429326793, align 8, !noundef !14
  %18 = icmp ugt i64 %17, 1
  br i1 %18, label %22, label %20

19:                                               ; preds = %1
  store i8 3, ptr %12, align 1
  br label %23

20:                                               ; preds = %16
  %21 = tail call noundef i8 @_ZN3std5panic19get_backtrace_style17h2726a0a3439d95d2E(), !range !27
  store i8 %21, ptr %12, align 1
  br label %23

22:                                               ; preds = %16
  store i8 1, ptr %12, align 1
  br label %23

23:                                               ; preds = %22, %20, %19
  call void @llvm.lifetime.start.p0(i64 8, ptr nonnull %11)
  %24 = getelementptr inbounds { { ptr, ptr }, ptr, ptr, i8, i8, [6 x i8] }, ptr %0, i64 0, i32 2
  %25 = load ptr, ptr %24, align 8, !nonnull !14, !align !15, !noundef !14
  store ptr %25, ptr %11, align 8
  call void @llvm.lifetime.start.p0(i64 16, ptr nonnull %10)
  %26 = load ptr, ptr %0, align 8, !nonnull !14, !align !16, !noundef !14
  %27 = getelementptr inbounds { ptr, ptr }, ptr %0, i64 0, i32 1
  %28 = load ptr, ptr %27, align 8, !nonnull !14, !align !15, !noundef !14
  %29 = getelementptr i8, ptr %28, i64 24
  %30 = load ptr, ptr %29, align 8
  %31 = tail call noundef i128 %30(ptr noundef nonnull align 1 %26)
  %32 = icmp eq i128 %31, -3011075744290844973410273712836543551
  br i1 %32, label %37, label %33

33:                                               ; preds = %23
  %34 = load ptr, ptr %29, align 8
  %35 = tail call noundef i128 %34(ptr noundef nonnull align 1 %26)
  %36 = icmp eq i128 %35, 19899861915293503949288191808122059493
  br i1 %36, label %39, label %47

37:                                               ; preds = %23
  %38 = getelementptr inbounds { ptr, i64 }, ptr %26, i64 0, i32 1
  br label %42

39:                                               ; preds = %33
  %40 = getelementptr inbounds { i64, ptr }, ptr %26, i64 0, i32 1
  %41 = getelementptr inbounds { { i64, ptr }, i64 }, ptr %26, i64 0, i32 1
  br label %42

42:                                               ; preds = %39, %37
  %43 = phi ptr [ %41, %39 ], [ %38, %37 ]
  %44 = phi ptr [ %40, %39 ], [ %26, %37 ]
  %45 = load ptr, ptr %44, align 8, !nonnull !14, !noundef !14
  %46 = load i64, ptr %43, align 8, !noundef !14
  br label %47

47:                                               ; preds = %42, %33
  %48 = phi ptr [ @anon.49f5641cf34e9cf781d07370d03020be.43, %33 ], [ %45, %42 ]
  %49 = phi i64 [ 12, %33 ], [ %46, %42 ]
  store ptr %48, ptr %10, align 8
  %50 = getelementptr inbounds { ptr, i64 }, ptr %10, i64 0, i32 1
  store i64 %49, ptr %50, align 8
  call void @llvm.lifetime.start.p0(i64 8, ptr nonnull %9)
  %51 = tail call noundef ptr @_ZN3std10sys_common11thread_info14current_thread17hcfcabec6773e8e13E()
  store ptr %51, ptr %9, align 8
  call void @llvm.lifetime.start.p0(i64 16, ptr nonnull %8)
  %52 = icmp eq ptr %51, null
  br i1 %52, label %69, label %53

53:                                               ; preds = %47
  %54 = getelementptr inbounds { { i64 }, { i64 }, { i64, { ptr, i64 }, { { i32 } }, [1 x i32] } }, ptr %51, i64 0, i32 2, i32 1
  %55 = load ptr, ptr %54, align 8, !alias.scope !97, !noalias !100, !noundef !14
  %56 = icmp eq ptr %55, null
  br i1 %56, label %69, label %57

57:                                               ; preds = %53
  %58 = getelementptr inbounds { { i64 }, { i64 }, { i64, { ptr, i64 }, { { i32 } }, [1 x i32] } }, ptr %51, i64 0, i32 2, i32 1, i32 1
  %59 = load i64, ptr %58, align 8, !alias.scope !97, !noalias !100, !noundef !14
  %60 = add i64 %59, -1
  br label %69

61:                                               ; preds = %69
  %62 = landingpad { ptr, i32 }
          cleanup
  call void @llvm.experimental.noalias.scope.decl(metadata !105)
  %63 = load ptr, ptr %9, align 8, !alias.scope !105, !noundef !14
  %64 = icmp eq ptr %63, null
  br i1 %64, label %177, label %65

65:                                               ; preds = %61
  %66 = atomicrmw sub ptr %63, i64 1 release, align 8, !noalias !108
  %67 = icmp eq i64 %66, 1
  br i1 %67, label %68, label %177

68:                                               ; preds = %65
  fence acquire
  invoke void @"_ZN5alloc4sync16Arc$LT$T$C$A$GT$9drop_slow17h3b62d525f760b56dE"(ptr noalias noundef nonnull align 8 dereferenceable(8) %9)
          to label %177 unwind label %140

69:                                               ; preds = %57, %53, %47
  %70 = phi ptr [ @anon.49f5641cf34e9cf781d07370d03020be.44, %47 ], [ @anon.49f5641cf34e9cf781d07370d03020be.44, %53 ], [ %55, %57 ]
  %71 = phi i64 [ 9, %47 ], [ 9, %53 ], [ %60, %57 ]
  store ptr %70, ptr %8, align 8
  %72 = getelementptr inbounds { ptr, i64 }, ptr %8, i64 0, i32 1
  store i64 %71, ptr %72, align 8
  call void @llvm.lifetime.start.p0(i64 32, ptr nonnull %7)
  store ptr %8, ptr %7, align 8
  %73 = getelementptr inbounds { ptr, ptr, ptr, ptr }, ptr %7, i64 0, i32 1
  store ptr %11, ptr %73, align 8
  %74 = getelementptr inbounds { ptr, ptr, ptr, ptr }, ptr %7, i64 0, i32 2
  store ptr %10, ptr %74, align 8
  %75 = getelementptr inbounds { ptr, ptr, ptr, ptr }, ptr %7, i64 0, i32 3
  store ptr %12, ptr %75, align 8
  call void @llvm.lifetime.start.p0(i64 8, ptr nonnull %6)
  %76 = invoke noundef ptr @_ZN3std2io5stdio18set_output_capture17h58c2e821599f8aacE(ptr noundef null)
          to label %77 unwind label %61

77:                                               ; preds = %69
  store ptr %76, ptr %6, align 8
  %78 = icmp ne ptr %76, null
  br i1 %78, label %79, label %84

79:                                               ; preds = %77
  call void @llvm.lifetime.start.p0(i64 8, ptr nonnull %5)
  store ptr %76, ptr %5, align 8
  call void @llvm.lifetime.start.p0(i64 16, ptr nonnull %4)
  %80 = getelementptr inbounds { { i64 }, { i64 }, { { { i32 } }, { { i8 } }, [3 x i8], { { { i64, ptr }, i64 } } } }, ptr %76, i64 0, i32 2
  %81 = cmpxchg ptr %80, i32 0, i32 1 acquire monotonic, align 4
  %82 = extractvalue { i32, i1 } %81, 1
  br i1 %82, label %89, label %83

83:                                               ; preds = %79
  call void @_ZN3std3sys4unix5locks11futex_mutex5Mutex14lock_contended17hd04b1a3ad9b934f4E(ptr noundef nonnull align 4 %80)
  br label %89

84:                                               ; preds = %77
  invoke fastcc void @"_ZN3std9panicking12default_hook28_$u7b$$u7b$closure$u7d$$u7d$17hd11d0c5b522d3c9bE"(ptr noalias noundef nonnull readonly align 8 dereferenceable(32) %7, ptr noundef nonnull align 1 %2, ptr noalias noundef nonnull readonly align 8 dereferenceable(24) @anon.49f5641cf34e9cf781d07370d03020be.46)
          to label %132 unwind label %157

85:                                               ; preds = %112, %93
  %86 = landingpad { ptr, i32 }
          cleanup
  br label %151

87:                                               ; preds = %130, %122
  %88 = landingpad { ptr, i32 }
          cleanup
  br label %142

89:                                               ; preds = %83, %79
  %90 = load atomic i64, ptr @_ZN3std9panicking11panic_count18GLOBAL_PANIC_COUNT17hbd0a618f0d2566aaE monotonic, align 8, !noalias !117
  %91 = and i64 %90, 9223372036854775807
  %92 = icmp eq i64 %91, 0
  br i1 %92, label %98, label %93

93:                                               ; preds = %89
  %94 = invoke noundef zeroext i1 @_ZN3std9panicking11panic_count17is_zero_slow_path17hb0fb1c6a103a0962E()
          to label %95 unwind label %85

95:                                               ; preds = %93
  %96 = xor i1 %94, true
  %97 = zext i1 %96 to i8
  br label %98

98:                                               ; preds = %95, %89
  %99 = phi i8 [ %97, %95 ], [ 0, %89 ]
  %100 = getelementptr inbounds { { i64 }, { i64 }, { { { i32 } }, { { i8 } }, [3 x i8], { { { i64, ptr }, i64 } } } }, ptr %76, i64 0, i32 2, i32 1
  %101 = load atomic i8, ptr %100 monotonic, align 4, !noalias !117
  store ptr %80, ptr %4, align 8
  %102 = getelementptr inbounds { ptr, i8 }, ptr %4, i64 0, i32 1
  store i8 %99, ptr %102, align 8
  %103 = getelementptr inbounds { { i64 }, { i64 }, { { { i32 } }, { { i8 } }, [3 x i8], { { { i64, ptr }, i64 } } } }, ptr %76, i64 0, i32 2, i32 3
  invoke fastcc void @"_ZN3std9panicking12default_hook28_$u7b$$u7b$closure$u7d$$u7d$17hd11d0c5b522d3c9bE"(ptr noalias noundef nonnull readonly align 8 dereferenceable(32) %7, ptr noundef nonnull align 1 %103, ptr noalias noundef nonnull readonly align 8 dereferenceable(24) @anon.49f5641cf34e9cf781d07370d03020be.45)
          to label %106 unwind label %104

104:                                              ; preds = %98
  %105 = landingpad { ptr, i32 }
          cleanup
  invoke fastcc void @"_ZN4core3ptr82drop_in_place$LT$std..sync..mutex..MutexGuard$LT$alloc..vec..Vec$LT$u8$GT$$GT$$GT$17ha49143983e1e4489E"(ptr noalias noundef nonnull align 8 dereferenceable(16) %4) #36
          to label %151 unwind label %140

106:                                              ; preds = %98
  call void @llvm.experimental.noalias.scope.decl(metadata !120)
  call void @llvm.experimental.noalias.scope.decl(metadata !123)
  %107 = icmp eq i8 %99, 0
  br i1 %107, label %108, label %116

108:                                              ; preds = %106
  %109 = load atomic i64, ptr @_ZN3std9panicking11panic_count18GLOBAL_PANIC_COUNT17hbd0a618f0d2566aaE monotonic, align 8, !noalias !126
  %110 = and i64 %109, 9223372036854775807
  %111 = icmp eq i64 %110, 0
  br i1 %111, label %116, label %112

112:                                              ; preds = %108
  %113 = invoke noundef zeroext i1 @_ZN3std9panicking11panic_count17is_zero_slow_path17hb0fb1c6a103a0962E()
          to label %114 unwind label %85

114:                                              ; preds = %112
  br i1 %113, label %116, label %115

115:                                              ; preds = %114
  store atomic i8 1, ptr %100 monotonic, align 4, !noalias !126
  br label %116

116:                                              ; preds = %115, %114, %108, %106
  %117 = load ptr, ptr %4, align 8, !alias.scope !126, !nonnull !14, !align !15, !noundef !14
  %118 = atomicrmw xchg ptr %117, i32 0 release, align 4, !noalias !126
  %119 = icmp eq i32 %118, 2
  br i1 %119, label %120, label %122

120:                                              ; preds = %116
  %121 = call noundef i64 (i64, ...) @syscall(i64 noundef 202, ptr noundef nonnull %117, i32 noundef 129, i32 noundef 1) #21
  br label %122

122:                                              ; preds = %120, %116
  call void @llvm.lifetime.end.p0(i64 16, ptr nonnull %4)
  call void @llvm.lifetime.start.p0(i64 8, ptr nonnull %3)
  %123 = load ptr, ptr %5, align 8, !nonnull !14, !noundef !14
  %124 = invoke noundef ptr @_ZN3std2io5stdio18set_output_capture17h58c2e821599f8aacE(ptr noundef nonnull %123)
          to label %125 unwind label %87

125:                                              ; preds = %122
  store ptr %124, ptr %3, align 8
  %126 = icmp eq ptr %124, null
  br i1 %126, label %131, label %127

127:                                              ; preds = %125
  %128 = atomicrmw sub ptr %124, i64 1 release, align 8, !noalias !127
  %129 = icmp eq i64 %128, 1
  br i1 %129, label %130, label %131

130:                                              ; preds = %127
  fence acquire
  invoke void @"_ZN5alloc4sync16Arc$LT$T$C$A$GT$9drop_slow17h2cd82fc8a4685c3eE"(ptr noalias noundef nonnull align 8 dereferenceable(8) %3)
          to label %131 unwind label %87

131:                                              ; preds = %130, %127, %125
  call void @llvm.lifetime.end.p0(i64 8, ptr nonnull %3)
  call void @llvm.lifetime.end.p0(i64 8, ptr nonnull %5)
  br label %132

132:                                              ; preds = %131, %84
  %133 = phi i8 [ 0, %131 ], [ 1, %84 ]
  call void @llvm.lifetime.end.p0(i64 32, ptr nonnull %7)
  call void @llvm.lifetime.end.p0(i64 16, ptr nonnull %8)
  call void @llvm.experimental.noalias.scope.decl(metadata !134)
  %134 = load ptr, ptr %9, align 8, !alias.scope !134, !noundef !14
  %135 = icmp eq ptr %134, null
  br i1 %135, label %168, label %136

136:                                              ; preds = %132
  %137 = atomicrmw sub ptr %134, i64 1 release, align 8, !noalias !137
  %138 = icmp eq i64 %137, 1
  br i1 %138, label %139, label %168

139:                                              ; preds = %136
  fence acquire
  invoke void @"_ZN5alloc4sync16Arc$LT$T$C$A$GT$9drop_slow17h3b62d525f760b56dE"(ptr noalias noundef nonnull align 8 dereferenceable(8) %9)
          to label %168 unwind label %166

140:                                              ; preds = %182, %156, %150, %104, %68
  %141 = landingpad { ptr, i32 }
          filter [0 x ptr] zeroinitializer
  call void @_ZN4core9panicking16panic_in_cleanup17h0cc56309fdf70f59E() #11
  unreachable

142:                                              ; preds = %157, %156, %151, %87
  %143 = phi i8 [ 0, %87 ], [ 1, %157 ], [ 0, %156 ], [ 0, %151 ]
  %144 = phi { ptr, i32 } [ %88, %87 ], [ %158, %157 ], [ %152, %156 ], [ %152, %151 ]
  call void @llvm.experimental.noalias.scope.decl(metadata !146)
  %145 = load ptr, ptr %9, align 8, !alias.scope !146, !noundef !14
  %146 = icmp eq ptr %145, null
  br i1 %146, label %159, label %147

147:                                              ; preds = %142
  %148 = atomicrmw sub ptr %145, i64 1 release, align 8, !noalias !149
  %149 = icmp eq i64 %148, 1
  br i1 %149, label %150, label %159

150:                                              ; preds = %147
  fence acquire
  invoke void @"_ZN5alloc4sync16Arc$LT$T$C$A$GT$9drop_slow17h3b62d525f760b56dE"(ptr noalias noundef nonnull align 8 dereferenceable(8) %9)
          to label %159 unwind label %140

151:                                              ; preds = %104, %85
  %152 = phi { ptr, i32 } [ %86, %85 ], [ %105, %104 ]
  call void @llvm.experimental.noalias.scope.decl(metadata !158)
  call void @llvm.experimental.noalias.scope.decl(metadata !161)
  %153 = load ptr, ptr %5, align 8, !alias.scope !164, !nonnull !14, !noundef !14
  %154 = atomicrmw sub ptr %153, i64 1 release, align 8, !noalias !164
  %155 = icmp eq i64 %154, 1
  br i1 %155, label %156, label %142

156:                                              ; preds = %151
  fence acquire
  invoke void @"_ZN5alloc4sync16Arc$LT$T$C$A$GT$9drop_slow17h2cd82fc8a4685c3eE"(ptr noalias noundef nonnull align 8 dereferenceable(8) %5)
          to label %142 unwind label %140

157:                                              ; preds = %84
  %158 = landingpad { ptr, i32 }
          cleanup
  br label %142

159:                                              ; preds = %166, %150, %147, %142
  %160 = phi i8 [ %133, %166 ], [ %143, %150 ], [ %143, %142 ], [ %143, %147 ]
  %161 = phi { ptr, i32 } [ %167, %166 ], [ %144, %150 ], [ %144, %142 ], [ %144, %147 ]
  %162 = load ptr, ptr %6, align 8, !noundef !14
  %163 = icmp eq ptr %162, null
  %164 = icmp eq i8 %160, 0
  %165 = or i1 %164, %163
  br i1 %165, label %177, label %179

166:                                              ; preds = %139
  %167 = landingpad { ptr, i32 }
          cleanup
  br label %159

168:                                              ; preds = %139, %136, %132
  call void @llvm.lifetime.end.p0(i64 8, ptr nonnull %9)
  call void @llvm.lifetime.end.p0(i64 16, ptr nonnull %10)
  call void @llvm.lifetime.end.p0(i64 8, ptr nonnull %11)
  call void @llvm.lifetime.end.p0(i64 1, ptr nonnull %12)
  %169 = load ptr, ptr %6, align 8, !noundef !14
  %170 = icmp eq ptr %169, null
  %171 = or i1 %78, %170
  br i1 %171, label %172, label %173

172:                                              ; preds = %176, %173, %168
  call void @llvm.lifetime.end.p0(i64 8, ptr nonnull %6)
  ret void

173:                                              ; preds = %168
  %174 = atomicrmw sub ptr %169, i64 1 release, align 8, !noalias !165
  %175 = icmp eq i64 %174, 1
  br i1 %175, label %176, label %172

176:                                              ; preds = %173
  fence acquire
  call void @"_ZN5alloc4sync16Arc$LT$T$C$A$GT$9drop_slow17h2cd82fc8a4685c3eE"(ptr noalias noundef nonnull align 8 dereferenceable(8) %6)
  br label %172

177:                                              ; preds = %182, %179, %159, %68, %65, %61
  %178 = phi { ptr, i32 } [ %161, %159 ], [ %62, %68 ], [ %62, %61 ], [ %62, %65 ], [ %161, %182 ], [ %161, %179 ]
  resume { ptr, i32 } %178

179:                                              ; preds = %159
  %180 = atomicrmw sub ptr %162, i64 1 release, align 8, !noalias !170
  %181 = icmp eq i64 %180, 1
  br i1 %181, label %182, label %177

182:                                              ; preds = %179
  fence acquire
  invoke void @"_ZN5alloc4sync16Arc$LT$T$C$A$GT$9drop_slow17h2cd82fc8a4685c3eE"(ptr noalias noundef nonnull align 8 dereferenceable(8) %6)
          to label %177 unwind label %140
}

; Function Attrs: inlinehint nonlazybind sanitize_hwaddress uwtable
define hidden fastcc void @"_ZN3std9panicking12default_hook28_$u7b$$u7b$closure$u7d$$u7d$17hd11d0c5b522d3c9bE"(ptr noalias nocapture noundef readonly align 8 dereferenceable(32) %0, ptr noundef nonnull align 1 %1, ptr noalias nocapture noundef readonly align 8 dereferenceable(24) %2) unnamed_addr #22 {
  %4 = alloca { { ptr, i64 }, { ptr, i64 }, { ptr, i64 } }, align 8
  %5 = alloca [3 x { ptr, ptr }], align 8
  %6 = alloca { { ptr, i64 }, { ptr, i64 }, { ptr, i64 } }, align 8
  call void @llvm.lifetime.start.p0(i64 48, ptr nonnull %6)
  call void @llvm.lifetime.start.p0(i64 48, ptr nonnull %5)
  %7 = load ptr, ptr %0, align 8, !nonnull !14, !align !15, !noundef !14
  %8 = getelementptr inbounds { ptr, ptr, ptr, ptr }, ptr %0, i64 0, i32 1
  %9 = load ptr, ptr %8, align 8, !nonnull !14, !align !15, !noundef !14
  %10 = getelementptr inbounds { ptr, ptr, ptr, ptr }, ptr %0, i64 0, i32 2
  %11 = load ptr, ptr %10, align 8, !nonnull !14, !align !15, !noundef !14
  store ptr %7, ptr %5, align 8
  %12 = getelementptr inbounds { ptr, ptr }, ptr %5, i64 0, i32 1
  store ptr @"_ZN44_$LT$$RF$T$u20$as$u20$core..fmt..Display$GT$3fmt17hccaff9d104b97a25E", ptr %12, align 8
  %13 = getelementptr inbounds [3 x { ptr, ptr }], ptr %5, i64 0, i64 1
  store ptr %9, ptr %13, align 8
  %14 = getelementptr inbounds [3 x { ptr, ptr }], ptr %5, i64 0, i64 1, i32 1
  store ptr @"_ZN44_$LT$$RF$T$u20$as$u20$core..fmt..Display$GT$3fmt17h3ec08a11ffdb3d12E", ptr %14, align 8
  %15 = getelementptr inbounds [3 x { ptr, ptr }], ptr %5, i64 0, i64 2
  store ptr %11, ptr %15, align 8
  %16 = getelementptr inbounds [3 x { ptr, ptr }], ptr %5, i64 0, i64 2, i32 1
  store ptr @"_ZN44_$LT$$RF$T$u20$as$u20$core..fmt..Display$GT$3fmt17hccaff9d104b97a25E", ptr %16, align 8
  store ptr @anon.49f5641cf34e9cf781d07370d03020be.51, ptr %6, align 8, !alias.scope !175, !noalias !178
  %17 = getelementptr inbounds { ptr, i64 }, ptr %6, i64 0, i32 1
  store i64 4, ptr %17, align 8, !alias.scope !175, !noalias !178
  %18 = getelementptr inbounds { { ptr, i64 }, { ptr, i64 }, { ptr, i64 } }, ptr %6, i64 0, i32 2
  store ptr null, ptr %18, align 8, !alias.scope !175, !noalias !178
  %19 = getelementptr inbounds { { ptr, i64 }, { ptr, i64 }, { ptr, i64 } }, ptr %6, i64 0, i32 1
  store ptr %5, ptr %19, align 8, !alias.scope !175, !noalias !178
  %20 = getelementptr inbounds { { ptr, i64 }, { ptr, i64 }, { ptr, i64 } }, ptr %6, i64 0, i32 1, i32 1
  store i64 3, ptr %20, align 8, !alias.scope !175, !noalias !178
  %21 = getelementptr inbounds ptr, ptr %2, i64 9
  %22 = load ptr, ptr %21, align 8, !invariant.load !14, !nonnull !14
  %23 = call noundef ptr %22(ptr noundef nonnull align 1 %1, ptr noalias nocapture noundef nonnull align 8 dereferenceable(48) %6)
  call void @llvm.lifetime.end.p0(i64 48, ptr nonnull %6)
  %24 = icmp eq ptr %23, null
  br i1 %24, label %26, label %25

25:                                               ; preds = %3
  call fastcc void @"_ZN4core3ptr42drop_in_place$LT$std..io..error..Error$GT$17h99f3a84feb436a8eE.llvm.3100245818866642629"(ptr nonnull %23)
  br label %26

26:                                               ; preds = %25, %3
  call void @llvm.lifetime.end.p0(i64 48, ptr nonnull %5)
  %27 = getelementptr inbounds { ptr, ptr, ptr, ptr }, ptr %0, i64 0, i32 3
  %28 = load ptr, ptr %27, align 8, !nonnull !14, !align !16, !noundef !14
  %29 = load i8, ptr %28, align 1, !range !27, !noundef !14
  %30 = icmp eq i8 %29, 3
  br i1 %30, label %34, label %35

31:                                               ; preds = %35
  unreachable

32:                                               ; preds = %46, %40, %37
  %33 = phi ptr [ %38, %37 ], [ %41, %40 ], [ %51, %46 ]
  call fastcc void @"_ZN4core3ptr42drop_in_place$LT$std..io..error..Error$GT$17h99f3a84feb436a8eE.llvm.3100245818866642629"(ptr nonnull %33)
  br label %34

34:                                               ; preds = %46, %43, %40, %37, %32, %26
  ret void

35:                                               ; preds = %26
  %36 = zext i8 %29 to i64
  switch i64 %36, label %31 [
    i64 0, label %37
    i64 1, label %40
    i64 2, label %43
  ]

37:                                               ; preds = %35
  %38 = call noundef ptr @_ZN3std10sys_common9backtrace5print17h8e52153d3a6a5289E(ptr noundef nonnull align 1 %1, ptr noalias noundef nonnull readonly align 8 dereferenceable(24) %2, i8 noundef 0)
  %39 = icmp eq ptr %38, null
  br i1 %39, label %34, label %32

40:                                               ; preds = %35
  %41 = call noundef ptr @_ZN3std10sys_common9backtrace5print17h8e52153d3a6a5289E(ptr noundef nonnull align 1 %1, ptr noalias noundef nonnull readonly align 8 dereferenceable(24) %2, i8 noundef 1)
  %42 = icmp eq ptr %41, null
  br i1 %42, label %34, label %32

43:                                               ; preds = %35
  %44 = atomicrmw xchg ptr @"_ZN3std9panicking12default_hook28_$u7b$$u7b$closure$u7d$$u7d$11FIRST_PANIC17ha64ebe25fa6a98d7E", i8 0 seq_cst, align 1
  %45 = icmp eq i8 %44, 0
  br i1 %45, label %34, label %46

46:                                               ; preds = %43
  call void @llvm.lifetime.start.p0(i64 48, ptr nonnull %4)
  store ptr @anon.49f5641cf34e9cf781d07370d03020be.53, ptr %4, align 8
  %47 = getelementptr inbounds { ptr, i64 }, ptr %4, i64 0, i32 1
  store i64 1, ptr %47, align 8
  %48 = getelementptr inbounds { { ptr, i64 }, { ptr, i64 }, { ptr, i64 } }, ptr %4, i64 0, i32 2
  store ptr null, ptr %48, align 8
  %49 = getelementptr inbounds { { ptr, i64 }, { ptr, i64 }, { ptr, i64 } }, ptr %4, i64 0, i32 1
  store ptr @anon.49f5641cf34e9cf781d07370d03020be.0.llvm.3100245818866642629, ptr %49, align 8
  %50 = getelementptr inbounds { { ptr, i64 }, { ptr, i64 }, { ptr, i64 } }, ptr %4, i64 0, i32 1, i32 1
  store i64 0, ptr %50, align 8
  %51 = call noundef ptr %22(ptr noundef nonnull align 1 %1, ptr noalias nocapture noundef nonnull align 8 dereferenceable(48) %4)
  call void @llvm.lifetime.end.p0(i64 48, ptr nonnull %4)
  %52 = icmp eq ptr %51, null
  br i1 %52, label %34, label %32
}

; Function Attrs: nonlazybind sanitize_hwaddress uwtable
define hidden fastcc void @"_ZN4core3ptr82drop_in_place$LT$std..sync..mutex..MutexGuard$LT$alloc..vec..Vec$LT$u8$GT$$GT$$GT$17ha49143983e1e4489E"(ptr noalias nocapture noundef readonly align 8 dereferenceable(16) %0) unnamed_addr #12 {
  tail call void @llvm.experimental.noalias.scope.decl(metadata !181)
  %2 = load ptr, ptr %0, align 8, !alias.scope !181, !nonnull !14, !align !15, !noundef !14
  %3 = getelementptr inbounds { { { i32 } }, { { i8 } }, [3 x i8], { { { i64, ptr }, i64 } } }, ptr %2, i64 0, i32 1
  %4 = getelementptr inbounds { ptr, i8 }, ptr %0, i64 0, i32 1
  %5 = load i8, ptr %4, align 8, !range !96, !alias.scope !181, !noundef !14
  %6 = icmp eq i8 %5, 0
  br i1 %6, label %7, label %14

7:                                                ; preds = %1
  %8 = load atomic i64, ptr @_ZN3std9panicking11panic_count18GLOBAL_PANIC_COUNT17hbd0a618f0d2566aaE monotonic, align 8, !noalias !181
  %9 = and i64 %8, 9223372036854775807
  %10 = icmp eq i64 %9, 0
  br i1 %10, label %14, label %11

11:                                               ; preds = %7
  %12 = tail call noundef zeroext i1 @_ZN3std9panicking11panic_count17is_zero_slow_path17hb0fb1c6a103a0962E(), !noalias !181
  br i1 %12, label %14, label %13

13:                                               ; preds = %11
  store atomic i8 1, ptr %3 monotonic, align 4, !noalias !181
  br label %14

14:                                               ; preds = %13, %11, %7, %1
  %15 = atomicrmw xchg ptr %2, i32 0 release, align 4, !noalias !181
  %16 = icmp eq i32 %15, 2
  br i1 %16, label %17, label %19

17:                                               ; preds = %14
  %18 = tail call noundef i64 (i64, ...) @syscall(i64 noundef 202, ptr noundef nonnull %2, i32 noundef 129, i32 noundef 1) #21, !noalias !181
  br label %19

19:                                               ; preds = %17, %14
  ret void
}

; Function Attrs: noreturn nonlazybind sanitize_hwaddress uwtable
define hidden void @rust_begin_unwind(ptr noalias noundef readonly align 8 dereferenceable(40) %0) unnamed_addr #25 {
  %2 = alloca { ptr, ptr, ptr }, align 8
  %3 = getelementptr inbounds { { ptr, ptr }, ptr, ptr, i8, i8, [6 x i8] }, ptr %0, i64 0, i32 1
  %4 = load ptr, ptr %3, align 8, !align !15, !noundef !14
  %5 = icmp eq ptr %4, null
  br i1 %5, label %6, label %7

6:                                                ; preds = %1
  tail call void @_ZN4core9panicking5panic17h270d4600dc7bb3f1E(ptr noalias noundef nonnull readonly align 1 @anon.49f5641cf34e9cf781d07370d03020be.42.llvm.3100245818866642629, i64 noundef 43, ptr noalias noundef nonnull readonly align 8 dereferenceable(24) @anon.49f5641cf34e9cf781d07370d03020be.54) #34
  unreachable

7:                                                ; preds = %1
  %8 = getelementptr inbounds { { ptr, ptr }, ptr, ptr, i8, i8, [6 x i8] }, ptr %0, i64 0, i32 2
  %9 = load ptr, ptr %8, align 8, !nonnull !14, !align !15, !noundef !14
  call void @llvm.lifetime.start.p0(i64 24, ptr nonnull %2)
  store ptr %4, ptr %2, align 8
  %10 = getelementptr inbounds { ptr, ptr, ptr }, ptr %2, i64 0, i32 1
  store ptr %0, ptr %10, align 8
  %11 = getelementptr inbounds { ptr, ptr, ptr }, ptr %2, i64 0, i32 2
  store ptr %9, ptr %11, align 8
  call void @_ZN3std10sys_common9backtrace26__rust_end_short_backtrace17h2d0aa5c03fed18eeE(ptr noalias nocapture noundef nonnull align 8 dereferenceable(24) %2) #34
  unreachable
}

; Function Attrs: noreturn nonlazybind sanitize_hwaddress uwtable
define hidden void @_ZN3std9panicking20rust_panic_with_hook17hdfb83b5aefcef115E(ptr noundef nonnull align 1 %0, ptr noalias noundef readonly align 8 dereferenceable(24) %1, ptr noalias noundef readonly align 8 dereferenceable_or_null(48) %2, ptr noalias noundef readonly align 8 dereferenceable(24) %3, i1 noundef zeroext %4, i1 noundef zeroext %5) unnamed_addr #25 personality ptr @rust_eh_personality {
  %7 = alloca { {} }, align 1
  %8 = alloca { ptr, ptr }, align 8
  %9 = alloca { ptr, ptr }, align 8
  %10 = alloca { ptr, ptr }, align 8
  %11 = alloca { { ptr, i64 }, { ptr, i64 }, { ptr, i64 } }, align 8
  %12 = alloca { { ptr, ptr }, ptr, ptr, i8, i8, [6 x i8] }, align 8
  %13 = alloca [1 x { ptr, ptr }], align 8
  %14 = alloca { { ptr, i64 }, { ptr, i64 }, { ptr, i64 } }, align 8
  %15 = alloca { { ptr, ptr }, ptr, ptr, i8, i8, [6 x i8] }, align 8
  %16 = alloca { { ptr, i64 }, { ptr, i64 }, { ptr, i64 } }, align 8
  %17 = atomicrmw add ptr @_ZN3std9panicking11panic_count18GLOBAL_PANIC_COUNT17hbd0a618f0d2566aaE, i64 1 monotonic, align 8
  %18 = icmp sgt i64 %17, -1
  br i1 %18, label %19, label %45

19:                                               ; preds = %6
  %20 = load i8, ptr @_ZN3std9panicking11panic_count17LOCAL_PANIC_COUNT7__getit3VAL17ha70c7fdbb65d7f5fE.1.llvm.11955502528429326793, align 8, !range !96, !noundef !14
  %21 = icmp eq i8 %20, 0
  br i1 %21, label %22, label %78

22:                                               ; preds = %19
  %23 = load i64, ptr @_ZN3std9panicking11panic_count17LOCAL_PANIC_COUNT7__getit3VAL17ha70c7fdbb65d7f5fE.0.llvm.11955502528429326793, align 8, !noundef !14
  %24 = add i64 %23, 1
  store i64 %24, ptr @_ZN3std9panicking11panic_count17LOCAL_PANIC_COUNT7__getit3VAL17ha70c7fdbb65d7f5fE.0.llvm.11955502528429326793, align 8
  store i8 1, ptr @_ZN3std9panicking11panic_count17LOCAL_PANIC_COUNT7__getit3VAL17ha70c7fdbb65d7f5fE.1.llvm.11955502528429326793, align 8
  call void @llvm.lifetime.start.p0(i64 40, ptr nonnull %12)
  store ptr @anon.49f5641cf34e9cf781d07370d03020be.0.llvm.3100245818866642629, ptr %12, align 8
  %25 = getelementptr inbounds { ptr, ptr }, ptr %12, i64 0, i32 1
  store ptr @anon.49f5641cf34e9cf781d07370d03020be.57, ptr %25, align 8
  %26 = getelementptr inbounds { { ptr, ptr }, ptr, ptr, i8, i8, [6 x i8] }, ptr %12, i64 0, i32 1
  store ptr %2, ptr %26, align 8
  %27 = getelementptr inbounds { { ptr, ptr }, ptr, ptr, i8, i8, [6 x i8] }, ptr %12, i64 0, i32 2
  store ptr %3, ptr %27, align 8
  %28 = getelementptr inbounds { { ptr, ptr }, ptr, ptr, i8, i8, [6 x i8] }, ptr %12, i64 0, i32 3
  %29 = zext i1 %4 to i8
  store i8 %29, ptr %28, align 8
  %30 = getelementptr inbounds { { ptr, ptr }, ptr, ptr, i8, i8, [6 x i8] }, ptr %12, i64 0, i32 4
  %31 = zext i1 %5 to i8
  store i8 %31, ptr %30, align 1
  %32 = load atomic i32, ptr @_ZN3std9panicking4HOOK17hd8940badb9f9928bE monotonic, align 8
  %33 = icmp ult i32 %32, 1073741822
  br i1 %33, label %35, label %34

34:                                               ; preds = %35, %22
  tail call void @_ZN3std3sys4unix5locks12futex_rwlock6RwLock14read_contended17hed304d1df22d9debE(ptr noundef nonnull align 4 @_ZN3std9panicking4HOOK17hd8940badb9f9928bE)
  br label %39

35:                                               ; preds = %22
  %36 = add nuw nsw i32 %32, 1
  %37 = cmpxchg weak ptr @_ZN3std9panicking4HOOK17hd8940badb9f9928bE, i32 %32, i32 %36 acquire monotonic, align 4
  %38 = extractvalue { i32, i1 } %37, 1
  br i1 %38, label %39, label %34

39:                                               ; preds = %35, %34
  %40 = load atomic i8, ptr getelementptr inbounds (<{ [9 x i8], [7 x i8], [8 x i8], [8 x i8] }>, ptr @_ZN3std9panicking4HOOK17hd8940badb9f9928bE, i64 0, i32 0, i64 8) monotonic, align 8, !noalias !184
  %41 = load ptr, ptr getelementptr inbounds (<{ [9 x i8], [7 x i8], [8 x i8], [8 x i8] }>, ptr @_ZN3std9panicking4HOOK17hd8940badb9f9928bE, i64 0, i32 2, i64 0), align 8, !noundef !14
  %42 = icmp eq ptr %41, null
  %43 = getelementptr inbounds ptr, ptr %1, i64 4
  %44 = load ptr, ptr %43, align 8, !invariant.load !14, !nonnull !14
  br i1 %42, label %103, label %101

45:                                               ; preds = %6
  call void @llvm.lifetime.start.p0(i64 40, ptr nonnull %15)
  store ptr @anon.49f5641cf34e9cf781d07370d03020be.0.llvm.3100245818866642629, ptr %15, align 8
  %46 = getelementptr inbounds { ptr, ptr }, ptr %15, i64 0, i32 1
  store ptr @anon.49f5641cf34e9cf781d07370d03020be.57, ptr %46, align 8
  %47 = getelementptr inbounds { { ptr, ptr }, ptr, ptr, i8, i8, [6 x i8] }, ptr %15, i64 0, i32 1
  store ptr %2, ptr %47, align 8
  %48 = getelementptr inbounds { { ptr, ptr }, ptr, ptr, i8, i8, [6 x i8] }, ptr %15, i64 0, i32 2
  store ptr %3, ptr %48, align 8
  %49 = getelementptr inbounds { { ptr, ptr }, ptr, ptr, i8, i8, [6 x i8] }, ptr %15, i64 0, i32 3
  %50 = zext i1 %4 to i8
  store i8 %50, ptr %49, align 8
  %51 = getelementptr inbounds { { ptr, ptr }, ptr, ptr, i8, i8, [6 x i8] }, ptr %15, i64 0, i32 4
  %52 = zext i1 %5 to i8
  store i8 %52, ptr %51, align 1
  call void @llvm.lifetime.start.p0(i64 48, ptr nonnull %14)
  call void @llvm.lifetime.start.p0(i64 16, ptr nonnull %13)
  store ptr %15, ptr %13, align 8
  %53 = getelementptr inbounds { ptr, ptr }, ptr %13, i64 0, i32 1
  store ptr @"_ZN73_$LT$core..panic..panic_info..PanicInfo$u20$as$u20$core..fmt..Display$GT$3fmt17hd486664a8881354dE", ptr %53, align 8
  store ptr @anon.49f5641cf34e9cf781d07370d03020be.59, ptr %14, align 8, !alias.scope !187, !noalias !190
  %54 = getelementptr inbounds { ptr, i64 }, ptr %14, i64 0, i32 1
  store i64 2, ptr %54, align 8, !alias.scope !187, !noalias !190
  %55 = getelementptr inbounds { { ptr, i64 }, { ptr, i64 }, { ptr, i64 } }, ptr %14, i64 0, i32 2
  store ptr null, ptr %55, align 8, !alias.scope !187, !noalias !190
  %56 = getelementptr inbounds { { ptr, i64 }, { ptr, i64 }, { ptr, i64 } }, ptr %14, i64 0, i32 1
  store ptr %13, ptr %56, align 8, !alias.scope !187, !noalias !190
  %57 = getelementptr inbounds { { ptr, i64 }, { ptr, i64 }, { ptr, i64 } }, ptr %14, i64 0, i32 1, i32 1
  store i64 1, ptr %57, align 8, !alias.scope !187, !noalias !190
  call void @llvm.lifetime.start.p0(i64 16, ptr nonnull %10), !noalias !193
  store ptr %7, ptr %10, align 8, !noalias !193
  %58 = getelementptr inbounds { ptr, ptr }, ptr %10, i64 0, i32 1
  store ptr null, ptr %58, align 8, !noalias !193
  %59 = invoke noundef zeroext i1 @_ZN4core3fmt5write17h93b330e7c1ab4f05E(ptr noundef nonnull align 1 %10, ptr noalias noundef nonnull readonly align 8 dereferenceable(24) @anon.0cbb6f93f2f44bcc75bcce58e553de37.58.llvm.9950552589247086825, ptr noalias nocapture noundef nonnull readonly align 8 dereferenceable(48) %14)
          to label %65 unwind label %60

60:                                               ; preds = %45
  %61 = landingpad { ptr, i32 }
          cleanup
  %62 = load ptr, ptr %58, align 8, !alias.scope !197, !noalias !193, !noundef !14
  %63 = icmp eq ptr %62, null
  br i1 %63, label %74, label %64

64:                                               ; preds = %60
  invoke fastcc void @"_ZN4core3ptr42drop_in_place$LT$std..io..error..Error$GT$17h99f3a84feb436a8eE.llvm.9950552589247086825"(ptr nonnull %62)
          to label %74 unwind label %72, !noalias !200

65:                                               ; preds = %45
  %66 = load ptr, ptr %58, align 8, !noalias !193
  %67 = icmp eq ptr %66, null
  br i1 %59, label %68, label %70

68:                                               ; preds = %65
  %69 = select i1 %67, ptr @anon.0cbb6f93f2f44bcc75bcce58e553de37.56.llvm.9950552589247086825, ptr %66
  call void @llvm.lifetime.end.p0(i64 16, ptr nonnull %10), !noalias !193
  call void @llvm.lifetime.end.p0(i64 48, ptr nonnull %14)
  call fastcc void @"_ZN4core3ptr42drop_in_place$LT$std..io..error..Error$GT$17h99f3a84feb436a8eE.llvm.3100245818866642629"(ptr nonnull %69)
  br label %77

70:                                               ; preds = %65
  br i1 %67, label %76, label %71

71:                                               ; preds = %70
  call fastcc void @"_ZN4core3ptr42drop_in_place$LT$std..io..error..Error$GT$17h99f3a84feb436a8eE.llvm.9950552589247086825"(ptr nonnull %66), !noalias !200
  br label %76

72:                                               ; preds = %64
  %73 = landingpad { ptr, i32 }
          filter [0 x ptr] zeroinitializer
  call void @_ZN4core9panicking16panic_in_cleanup17h0cc56309fdf70f59E() #11, !noalias !200
  unreachable

74:                                               ; preds = %152, %146, %133, %129, %89, %85, %64, %60
  %75 = phi { ptr, i32 } [ %61, %64 ], [ %61, %60 ], [ %86, %89 ], [ %86, %85 ], [ %130, %133 ], [ %130, %129 ], [ %147, %152 ], [ %147, %146 ]
  resume { ptr, i32 } %75

76:                                               ; preds = %71, %70
  call void @llvm.lifetime.end.p0(i64 16, ptr nonnull %10), !noalias !193
  call void @llvm.lifetime.end.p0(i64 48, ptr nonnull %14)
  br label %77

77:                                               ; preds = %76, %68
  call void @llvm.lifetime.end.p0(i64 16, ptr nonnull %13)
  call void @llvm.lifetime.end.p0(i64 40, ptr nonnull %15)
  br label %100

78:                                               ; preds = %19
  call void @llvm.lifetime.start.p0(i64 48, ptr nonnull %16)
  store ptr @anon.49f5641cf34e9cf781d07370d03020be.61, ptr %16, align 8
  %79 = getelementptr inbounds { ptr, i64 }, ptr %16, i64 0, i32 1
  store i64 1, ptr %79, align 8
  %80 = getelementptr inbounds { { ptr, i64 }, { ptr, i64 }, { ptr, i64 } }, ptr %16, i64 0, i32 2
  store ptr null, ptr %80, align 8
  %81 = getelementptr inbounds { { ptr, i64 }, { ptr, i64 }, { ptr, i64 } }, ptr %16, i64 0, i32 1
  store ptr @anon.49f5641cf34e9cf781d07370d03020be.0.llvm.3100245818866642629, ptr %81, align 8
  %82 = getelementptr inbounds { { ptr, i64 }, { ptr, i64 }, { ptr, i64 } }, ptr %16, i64 0, i32 1, i32 1
  store i64 0, ptr %82, align 8
  call void @llvm.lifetime.start.p0(i64 16, ptr nonnull %9), !noalias !201
  store ptr %7, ptr %9, align 8, !noalias !201
  %83 = getelementptr inbounds { ptr, ptr }, ptr %9, i64 0, i32 1
  store ptr null, ptr %83, align 8, !noalias !201
  %84 = invoke noundef zeroext i1 @_ZN4core3fmt5write17h93b330e7c1ab4f05E(ptr noundef nonnull align 1 %9, ptr noalias noundef nonnull readonly align 8 dereferenceable(24) @anon.0cbb6f93f2f44bcc75bcce58e553de37.58.llvm.9950552589247086825, ptr noalias nocapture noundef nonnull readonly align 8 dereferenceable(48) %16)
          to label %90 unwind label %85

85:                                               ; preds = %78
  %86 = landingpad { ptr, i32 }
          cleanup
  %87 = load ptr, ptr %83, align 8, !alias.scope !205, !noalias !201, !noundef !14
  %88 = icmp eq ptr %87, null
  br i1 %88, label %74, label %89

89:                                               ; preds = %85
  invoke fastcc void @"_ZN4core3ptr42drop_in_place$LT$std..io..error..Error$GT$17h99f3a84feb436a8eE.llvm.9950552589247086825"(ptr nonnull %87)
          to label %74 unwind label %97, !noalias !208

90:                                               ; preds = %78
  %91 = load ptr, ptr %83, align 8, !noalias !201
  %92 = icmp eq ptr %91, null
  br i1 %84, label %93, label %95

93:                                               ; preds = %90
  %94 = select i1 %92, ptr @anon.0cbb6f93f2f44bcc75bcce58e553de37.56.llvm.9950552589247086825, ptr %91
  call void @llvm.lifetime.end.p0(i64 16, ptr nonnull %9), !noalias !201
  call void @llvm.lifetime.end.p0(i64 48, ptr nonnull %16)
  call fastcc void @"_ZN4core3ptr42drop_in_place$LT$std..io..error..Error$GT$17h99f3a84feb436a8eE.llvm.3100245818866642629"(ptr nonnull %94)
  br label %100

95:                                               ; preds = %90
  br i1 %92, label %99, label %96

96:                                               ; preds = %95
  call fastcc void @"_ZN4core3ptr42drop_in_place$LT$std..io..error..Error$GT$17h99f3a84feb436a8eE.llvm.9950552589247086825"(ptr nonnull %91), !noalias !208
  br label %99

97:                                               ; preds = %89
  %98 = landingpad { ptr, i32 }
          filter [0 x ptr] zeroinitializer
  call void @_ZN4core9panicking16panic_in_cleanup17h0cc56309fdf70f59E() #11, !noalias !208
  unreachable

99:                                               ; preds = %96, %95
  call void @llvm.lifetime.end.p0(i64 16, ptr nonnull %9), !noalias !201
  call void @llvm.lifetime.end.p0(i64 48, ptr nonnull %16)
  br label %100

100:                                              ; preds = %99, %93, %77
  call void @_ZN3std3sys4unix14abort_internal17h4cce76577424ac08E() #34
  unreachable

101:                                              ; preds = %39
  %102 = invoke { ptr, ptr } %44(ptr noundef nonnull align 1 %0)
          to label %115 unwind label %146

103:                                              ; preds = %39
  %104 = invoke { ptr, ptr } %44(ptr noundef nonnull align 1 %0)
          to label %105 unwind label %146

105:                                              ; preds = %103
  %106 = extractvalue { ptr, ptr } %104, 0
  %107 = extractvalue { ptr, ptr } %104, 1
  store ptr %106, ptr %12, align 8
  store ptr %107, ptr %25, align 8
  invoke void @_ZN3std9panicking12default_hook17h0881133c5cc32d3cE(ptr noalias noundef nonnull readonly align 8 dereferenceable(40) %12)
          to label %108 unwind label %146

108:                                              ; preds = %115, %105
  %109 = atomicrmw sub ptr @_ZN3std9panicking4HOOK17hd8940badb9f9928bE, i32 1 release, align 4, !noalias !209
  %110 = add i32 %109, -1
  %111 = and i32 %110, -1073741825
  %112 = icmp eq i32 %111, -2147483648
  br i1 %112, label %113, label %114

113:                                              ; preds = %108
  call void @_ZN3std3sys4unix5locks12futex_rwlock6RwLock22wake_writer_or_readers17ha46364ce032cd417E(ptr noundef nonnull align 4 @_ZN3std9panicking4HOOK17hd8940badb9f9928bE, i32 noundef %110), !noalias !209
  br label %114

114:                                              ; preds = %113, %108
  store i8 0, ptr @_ZN3std9panicking11panic_count17LOCAL_PANIC_COUNT7__getit3VAL17ha70c7fdbb65d7f5fE.1.llvm.11955502528429326793, align 8
  br i1 %4, label %144, label %122

115:                                              ; preds = %101
  %116 = extractvalue { ptr, ptr } %102, 0
  %117 = extractvalue { ptr, ptr } %102, 1
  store ptr %116, ptr %12, align 8
  store ptr %117, ptr %25, align 8
  tail call void @llvm.experimental.noalias.scope.decl(metadata !212)
  %118 = load ptr, ptr getelementptr inbounds (<{ [9 x i8], [7 x i8], [8 x i8], [8 x i8] }>, ptr @_ZN3std9panicking4HOOK17hd8940badb9f9928bE, i64 0, i32 2, i64 0), align 8, !alias.scope !212, !noalias !215, !nonnull !14, !align !16, !noundef !14
  %119 = load ptr, ptr getelementptr inbounds (<{ [9 x i8], [7 x i8], [8 x i8], [8 x i8] }>, ptr @_ZN3std9panicking4HOOK17hd8940badb9f9928bE, i64 0, i32 3, i64 0), align 8, !alias.scope !212, !noalias !215, !nonnull !14, !align !15, !noundef !14
  %120 = getelementptr inbounds ptr, ptr %119, i64 5
  %121 = load ptr, ptr %120, align 8, !invariant.load !14, !noalias !217, !nonnull !14
  invoke void %121(ptr noundef nonnull align 1 %118, ptr noalias noundef nonnull readonly align 8 dereferenceable(40) %12)
          to label %108 unwind label %146

122:                                              ; preds = %114
  call void @llvm.lifetime.start.p0(i64 48, ptr nonnull %11)
  store ptr @anon.49f5641cf34e9cf781d07370d03020be.63, ptr %11, align 8
  %123 = getelementptr inbounds { ptr, i64 }, ptr %11, i64 0, i32 1
  store i64 1, ptr %123, align 8
  %124 = getelementptr inbounds { { ptr, i64 }, { ptr, i64 }, { ptr, i64 } }, ptr %11, i64 0, i32 2
  store ptr null, ptr %124, align 8
  %125 = getelementptr inbounds { { ptr, i64 }, { ptr, i64 }, { ptr, i64 } }, ptr %11, i64 0, i32 1
  store ptr @anon.49f5641cf34e9cf781d07370d03020be.0.llvm.3100245818866642629, ptr %125, align 8
  %126 = getelementptr inbounds { { ptr, i64 }, { ptr, i64 }, { ptr, i64 } }, ptr %11, i64 0, i32 1, i32 1
  store i64 0, ptr %126, align 8
  call void @llvm.lifetime.start.p0(i64 16, ptr nonnull %8), !noalias !218
  store ptr %7, ptr %8, align 8, !noalias !218
  %127 = getelementptr inbounds { ptr, ptr }, ptr %8, i64 0, i32 1
  store ptr null, ptr %127, align 8, !noalias !218
  %128 = invoke noundef zeroext i1 @_ZN4core3fmt5write17h93b330e7c1ab4f05E(ptr noundef nonnull align 1 %8, ptr noalias noundef nonnull readonly align 8 dereferenceable(24) @anon.0cbb6f93f2f44bcc75bcce58e553de37.58.llvm.9950552589247086825, ptr noalias nocapture noundef nonnull readonly align 8 dereferenceable(48) %11)
          to label %134 unwind label %129

129:                                              ; preds = %122
  %130 = landingpad { ptr, i32 }
          cleanup
  %131 = load ptr, ptr %127, align 8, !alias.scope !222, !noalias !218, !noundef !14
  %132 = icmp eq ptr %131, null
  br i1 %132, label %74, label %133

133:                                              ; preds = %129
  invoke fastcc void @"_ZN4core3ptr42drop_in_place$LT$std..io..error..Error$GT$17h99f3a84feb436a8eE.llvm.9950552589247086825"(ptr nonnull %131)
          to label %74 unwind label %141, !noalias !225

134:                                              ; preds = %122
  %135 = load ptr, ptr %127, align 8, !noalias !218
  %136 = icmp eq ptr %135, null
  br i1 %128, label %137, label %139

137:                                              ; preds = %134
  %138 = select i1 %136, ptr @anon.0cbb6f93f2f44bcc75bcce58e553de37.56.llvm.9950552589247086825, ptr %135
  call void @llvm.lifetime.end.p0(i64 16, ptr nonnull %8), !noalias !218
  call void @llvm.lifetime.end.p0(i64 48, ptr nonnull %11)
  call fastcc void @"_ZN4core3ptr42drop_in_place$LT$std..io..error..Error$GT$17h99f3a84feb436a8eE.llvm.3100245818866642629"(ptr nonnull %138)
  br label %145

139:                                              ; preds = %134
  br i1 %136, label %143, label %140

140:                                              ; preds = %139
  call fastcc void @"_ZN4core3ptr42drop_in_place$LT$std..io..error..Error$GT$17h99f3a84feb436a8eE.llvm.9950552589247086825"(ptr nonnull %135), !noalias !225
  br label %143

141:                                              ; preds = %133
  %142 = landingpad { ptr, i32 }
          filter [0 x ptr] zeroinitializer
  call void @_ZN4core9panicking16panic_in_cleanup17h0cc56309fdf70f59E() #11, !noalias !225
  unreachable

143:                                              ; preds = %140, %139
  call void @llvm.lifetime.end.p0(i64 16, ptr nonnull %8), !noalias !218
  call void @llvm.lifetime.end.p0(i64 48, ptr nonnull %11)
  br label %145

144:                                              ; preds = %114
  call void @rust_panic(ptr noundef nonnull align 1 %0, ptr noalias noundef nonnull readonly align 8 dereferenceable(24) %1) #34
  unreachable

145:                                              ; preds = %143, %137
  call void @_ZN3std3sys4unix14abort_internal17h4cce76577424ac08E() #34
  unreachable

146:                                              ; preds = %115, %105, %103, %101
  %147 = landingpad { ptr, i32 }
          cleanup
  %148 = atomicrmw sub ptr @_ZN3std9panicking4HOOK17hd8940badb9f9928bE, i32 1 release, align 4, !noalias !226
  %149 = add i32 %148, -1
  %150 = and i32 %149, -1073741825
  %151 = icmp eq i32 %150, -2147483648
  br i1 %151, label %152, label %74

152:                                              ; preds = %146
  invoke void @_ZN3std3sys4unix5locks12futex_rwlock6RwLock22wake_writer_or_readers17ha46364ce032cd417E(ptr noundef nonnull align 4 @_ZN3std9panicking4HOOK17hd8940badb9f9928bE, i32 noundef %149)
          to label %74 unwind label %153

153:                                              ; preds = %152
  %154 = landingpad { ptr, i32 }
          filter [0 x ptr] zeroinitializer
  call void @_ZN4core9panicking16panic_in_cleanup17h0cc56309fdf70f59E() #11
  unreachable
}

; Function Attrs: noinline noreturn nonlazybind sanitize_hwaddress uwtable
define hidden void @rust_panic(ptr noundef nonnull align 1 %0, ptr noalias noundef readonly align 8 dereferenceable(24) %1) unnamed_addr #9 {
  %3 = alloca { {} }, align 1
  %4 = alloca [1 x { ptr, ptr }], align 8
  %5 = alloca { { ptr, i64 }, { ptr, i64 }, { ptr, i64 } }, align 8
  %6 = alloca i32, align 4
  call void @llvm.lifetime.start.p0(i64 4, ptr nonnull %6)
  %7 = tail call noundef i32 @__rust_start_panic(ptr noundef nonnull align 1 %0, ptr noalias noundef nonnull readonly align 8 dereferenceable(24) %1)
  store i32 %7, ptr %6, align 4
  call void @llvm.lifetime.start.p0(i64 48, ptr nonnull %5)
  call void @llvm.lifetime.start.p0(i64 16, ptr nonnull %4)
  store ptr %6, ptr %4, align 8
  %8 = getelementptr inbounds { ptr, ptr }, ptr %4, i64 0, i32 1
  store ptr @"_ZN4core3fmt3num3imp52_$LT$impl$u20$core..fmt..Display$u20$for$u20$u32$GT$3fmt17h289e4d5a7ac40b7bE", ptr %8, align 8
  store ptr @anon.49f5641cf34e9cf781d07370d03020be.67, ptr %5, align 8, !alias.scope !229, !noalias !232
  %9 = getelementptr inbounds { ptr, i64 }, ptr %5, i64 0, i32 1
  store i64 2, ptr %9, align 8, !alias.scope !229, !noalias !232
  %10 = getelementptr inbounds { { ptr, i64 }, { ptr, i64 }, { ptr, i64 } }, ptr %5, i64 0, i32 2
  store ptr null, ptr %10, align 8, !alias.scope !229, !noalias !232
  %11 = getelementptr inbounds { { ptr, i64 }, { ptr, i64 }, { ptr, i64 } }, ptr %5, i64 0, i32 1
  store ptr %4, ptr %11, align 8, !alias.scope !229, !noalias !232
  %12 = getelementptr inbounds { { ptr, i64 }, { ptr, i64 }, { ptr, i64 } }, ptr %5, i64 0, i32 1, i32 1
  store i64 1, ptr %12, align 8, !alias.scope !229, !noalias !232
  %13 = call noundef ptr @_ZN3std2io5Write9write_fmt17hc450c2a975ecb6f3E(ptr noalias noundef nonnull align 1 %3, ptr noalias nocapture noundef nonnull align 8 dereferenceable(48) %5)
  call void @llvm.lifetime.end.p0(i64 48, ptr nonnull %5)
  call fastcc void @"_ZN4core3ptr81drop_in_place$LT$core..result..Result$LT$$LP$$RP$$C$std..io..error..Error$GT$$GT$17h69a169799d202746E"(ptr %13)
  call void @llvm.lifetime.end.p0(i64 16, ptr nonnull %4)
  call void @_ZN3std3sys4unix14abort_internal17h4cce76577424ac08E() #34
  unreachable
}

; Function Attrs: nonlazybind sanitize_hwaddress uwtable
define hidden fastcc void @"_ZN4core3ptr81drop_in_place$LT$core..result..Result$LT$$LP$$RP$$C$std..io..error..Error$GT$$GT$17h69a169799d202746E"(ptr %0) unnamed_addr #12 {
  %2 = icmp eq ptr %0, null
  br i1 %2, label %3, label %4

3:                                                ; preds = %4, %1
  ret void

4:                                                ; preds = %1
  tail call fastcc void @"_ZN4core3ptr42drop_in_place$LT$std..io..error..Error$GT$17h99f3a84feb436a8eE.llvm.3100245818866642629"(ptr nonnull %0)
  br label %3
}

; Function Attrs: noinline nounwind nonlazybind sanitize_hwaddress uwtable
define hidden void @"_ZN5alloc4sync16Arc$LT$T$C$A$GT$9drop_slow17h2cd82fc8a4685c3eE"(ptr noalias nocapture noundef readonly align 8 dereferenceable(8) %0) unnamed_addr #26 personality ptr @rust_eh_personality {
  %2 = load ptr, ptr %0, align 8, !nonnull !14, !noundef !14
  %3 = getelementptr inbounds { { i64 }, { i64 }, { { { i32 } }, { { i8 } }, [3 x i8], { { { i64, ptr }, i64 } } } }, ptr %2, i64 0, i32 2, i32 3
  tail call void @llvm.experimental.noalias.scope.decl(metadata !235)
  %4 = load i64, ptr %3, align 8, !alias.scope !235, !noundef !14
  %5 = icmp eq i64 %4, 0
  br i1 %5, label %9, label %6

6:                                                ; preds = %1
  %7 = getelementptr inbounds { { i64 }, { i64 }, { { { i32 } }, { { i8 } }, [3 x i8], { { { i64, ptr }, i64 } } } }, ptr %2, i64 0, i32 2, i32 3, i32 0, i32 0, i32 1
  %8 = load ptr, ptr %7, align 8, !alias.scope !235, !nonnull !14, !noundef !14
  tail call void @__rust_dealloc(ptr noundef nonnull %8, i64 noundef %4, i64 noundef 1) #21, !noalias !235
  br label %9

9:                                                ; preds = %6, %1
  %10 = icmp eq ptr %2, inttoptr (i64 -1 to ptr)
  br i1 %10, label %16, label %11

11:                                               ; preds = %9
  %12 = getelementptr inbounds { { i64 }, { i64 }, { { { i32 } }, { { i8 } }, [3 x i8], { { { i64, ptr }, i64 } } } }, ptr %2, i64 0, i32 1
  %13 = atomicrmw sub ptr %12, i64 1 release, align 8, !noalias !238
  %14 = icmp eq i64 %13, 1
  br i1 %14, label %15, label %16

15:                                               ; preds = %11
  fence acquire
  tail call void @__rust_dealloc(ptr noundef nonnull %2, i64 noundef 48, i64 noundef 8) #21, !noalias !238
  br label %16

16:                                               ; preds = %15, %11, %9
  ret void
}

; Function Attrs: noinline nounwind nonlazybind sanitize_hwaddress uwtable
define hidden void @"_ZN5alloc4sync16Arc$LT$T$C$A$GT$9drop_slow17h3b62d525f760b56dE"(ptr noalias nocapture noundef readonly align 8 dereferenceable(8) %0) unnamed_addr #26 personality ptr @rust_eh_personality {
  %2 = load ptr, ptr %0, align 8, !nonnull !14, !noundef !14
  %3 = getelementptr { { i64 }, { i64 }, { i64, { ptr, i64 }, { { i32 } }, [1 x i32] } }, ptr %2, i64 0, i32 2, i32 1
  %4 = load ptr, ptr %3, align 8, !noundef !14
  %5 = getelementptr { { i64 }, { i64 }, { i64, { ptr, i64 }, { { i32 } }, [1 x i32] } }, ptr %2, i64 0, i32 2, i32 1, i32 1
  %6 = load i64, ptr %5, align 8
  %7 = icmp eq ptr %4, null
  br i1 %7, label %11, label %8

8:                                                ; preds = %1
  store i8 0, ptr %4, align 1
  %9 = icmp eq i64 %6, 0
  br i1 %9, label %11, label %10

10:                                               ; preds = %8
  tail call void @__rust_dealloc(ptr noundef nonnull %4, i64 noundef %6, i64 noundef 1) #21
  br label %11

11:                                               ; preds = %10, %8, %1
  %12 = icmp eq ptr %2, inttoptr (i64 -1 to ptr)
  br i1 %12, label %18, label %13

13:                                               ; preds = %11
  %14 = getelementptr inbounds { { i64 }, { i64 }, { i64, { ptr, i64 }, { { i32 } }, [1 x i32] } }, ptr %2, i64 0, i32 1
  %15 = atomicrmw sub ptr %14, i64 1 release, align 8, !noalias !243
  %16 = icmp eq i64 %15, 1
  br i1 %16, label %17, label %18

17:                                               ; preds = %13
  fence acquire
  tail call void @__rust_dealloc(ptr noundef nonnull %2, i64 noundef 48, i64 noundef 8) #21, !noalias !243
  br label %18

18:                                               ; preds = %17, %13, %11
  ret void
}

; Function Attrs: noinline nounwind nonlazybind sanitize_hwaddress uwtable
define hidden void @"_ZN5alloc4sync16Arc$LT$T$C$A$GT$9drop_slow17h5c3a7c2b9a3dd031E"(ptr noalias nocapture noundef readonly align 8 dereferenceable(8) %0) unnamed_addr #26 {
  %2 = load ptr, ptr %0, align 8, !nonnull !14, !noundef !14
  %3 = icmp eq ptr %2, inttoptr (i64 -1 to ptr)
  br i1 %3, label %9, label %4

4:                                                ; preds = %1
  %5 = getelementptr inbounds { { i64 }, { i64 }, { [4 x i64] } }, ptr %2, i64 0, i32 1
  %6 = atomicrmw sub ptr %5, i64 1 release, align 8, !noalias !248
  %7 = icmp eq i64 %6, 1
  br i1 %7, label %8, label %9

8:                                                ; preds = %4
  fence acquire
  tail call void @__rust_dealloc(ptr noundef nonnull %2, i64 noundef 48, i64 noundef 8) #21, !noalias !248
  br label %9

9:                                                ; preds = %8, %4, %1
  ret void
}

; Function Attrs: noinline nonlazybind sanitize_hwaddress uwtable
define hidden fastcc noundef align 8 ptr @"_ZN3std3sys6common12thread_local10fast_local12Key$LT$T$GT$14try_initialize17h95ea045acf24ef64E.llvm.11018740537405607228"(ptr noundef nonnull align 8 %0, ptr noalias nocapture noundef align 8 dereferenceable_or_null(16) %1) unnamed_addr #0 personality ptr @rust_eh_personality {
  %3 = alloca { i64, ptr }, align 8
  %4 = getelementptr inbounds { { i64, ptr }, i8, [7 x i8] }, ptr %0, i64 0, i32 1
  %5 = load i8, ptr %4, align 8, !range !253, !noundef !14
  %6 = zext i8 %5 to i64
  switch i64 %6, label %7 [
    i64 0, label %8
    i64 1, label %13
    i64 2, label %37
  ]

7:                                                ; preds = %2
  unreachable

8:                                                ; preds = %2
  br i1 icmp ne (ptr @__cxa_thread_atexit_impl, ptr null), label %9, label %11

9:                                                ; preds = %8
  %10 = tail call noundef i32 @__cxa_thread_atexit_impl(ptr noundef nonnull @_ZN3std3sys6common12thread_local10fast_local13destroy_value17h5f2f84fdf2e7ed66E, ptr noundef nonnull %0, ptr noundef nonnull @_rust_extern_with_linkage___dso_handle.llvm.11955502528429326793) #21
  br label %12

11:                                               ; preds = %8
  tail call void @_ZN3std10sys_common17thread_local_dtor22register_dtor_fallback17h1c98fe5f551f3094E(ptr noundef nonnull %0, ptr noundef nonnull @_ZN3std3sys6common12thread_local10fast_local13destroy_value17h5f2f84fdf2e7ed66E)
  br label %12

12:                                               ; preds = %11, %9
  store i8 1, ptr %4, align 8
  br label %13

13:                                               ; preds = %12, %2
  tail call void @llvm.experimental.noalias.scope.decl(metadata !254)
  %14 = icmp eq ptr %1, null
  br i1 %14, label %21, label %15

15:                                               ; preds = %13
  %16 = load i64, ptr %1, align 8, !range !86, !alias.scope !257, !noundef !14
  %17 = getelementptr inbounds { i64, ptr }, ptr %1, i64 0, i32 1
  %18 = load ptr, ptr %17, align 8, !alias.scope !257
  store i64 0, ptr %1, align 8, !alias.scope !257
  %19 = icmp eq i64 %16, 0
  %20 = select i1 %19, ptr null, ptr %18
  br label %21

21:                                               ; preds = %15, %13
  %22 = phi ptr [ null, %13 ], [ %20, %15 ]
  call void @llvm.lifetime.start.p0(i64 16, ptr nonnull %3), !noalias !254
  %23 = load i64, ptr %0, align 8, !range !86, !noalias !254, !noundef !14
  %24 = getelementptr inbounds { i64, ptr }, ptr %0, i64 0, i32 1
  %25 = load ptr, ptr %24, align 8, !noalias !254
  store i64 %23, ptr %3, align 8, !noalias !254
  %26 = getelementptr inbounds { i64, ptr }, ptr %3, i64 0, i32 1
  store ptr %25, ptr %26, align 8, !noalias !254
  store i64 1, ptr %0, align 8, !noalias !254
  store ptr %22, ptr %24, align 8, !noalias !254
  %27 = icmp eq i64 %23, 0
  %28 = icmp eq ptr %25, null
  %29 = select i1 %27, i1 true, i1 %28
  br i1 %29, label %34, label %30

30:                                               ; preds = %21
  %31 = atomicrmw sub ptr %25, i64 1 release, align 8, !noalias !260
  %32 = icmp eq i64 %31, 1
  br i1 %32, label %33, label %34

33:                                               ; preds = %30
  fence acquire
  call void @"_ZN5alloc4sync16Arc$LT$T$C$A$GT$9drop_slow17h2cd82fc8a4685c3eE"(ptr noalias noundef nonnull align 8 dereferenceable(8) %26), !noalias !254
  br label %34

34:                                               ; preds = %33, %30, %21
  call void @llvm.lifetime.end.p0(i64 16, ptr nonnull %3), !noalias !254
  %35 = load i64, ptr %0, align 8, !range !86, !noalias !254, !noundef !14
  %36 = icmp ne i64 %35, 0
  call void @llvm.assume(i1 %36)
  br label %37

37:                                               ; preds = %34, %2
  %38 = phi ptr [ %24, %34 ], [ null, %2 ]
  ret ptr %38
}

; Function Attrs: nounwind nonlazybind sanitize_hwaddress uwtable
declare hidden void @_ZN3std3sys6common12thread_local10fast_local13destroy_value17h5f2f84fdf2e7ed66E(ptr nocapture noundef) unnamed_addr #20

; Function Attrs: cold noreturn nounwind nonlazybind sanitize_hwaddress uwtable
define hidden void @_ZN3std7process5abort17h7a8a1782dc50807dE() unnamed_addr #27 {
  tail call void @_ZN3std3sys4unix14abort_internal17h4cce76577424ac08E() #34
  unreachable
}

; Function Attrs: nonlazybind sanitize_hwaddress uwtable
define hidden fastcc void @"_ZN4core3ptr42drop_in_place$LT$std..io..error..Error$GT$17h99f3a84feb436a8eE.llvm.9950552589247086825"(ptr %0) unnamed_addr #12 personality ptr @rust_eh_personality {
  %2 = icmp ne ptr %0, null
  tail call void @llvm.assume(i1 %2)
  %3 = ptrtoint ptr %0 to i64
  %4 = and i64 %3, 3
  switch i64 %4, label %5 [
    i64 2, label %38
    i64 3, label %6
    i64 0, label %38
    i64 1, label %10
  ]

5:                                                ; preds = %1
  unreachable

6:                                                ; preds = %1
  %7 = lshr i64 %3, 32
  %8 = trunc i64 %7 to i32
  %9 = icmp ult i32 %8, 41
  tail call void @llvm.assume(i1 %9)
  br label %38

10:                                               ; preds = %1
  %11 = getelementptr i8, ptr %0, i64 -1
  %12 = icmp ne ptr %11, null
  tail call void @llvm.assume(i1 %12)
  %13 = load ptr, ptr %11, align 8, !noundef !14
  %14 = getelementptr i8, ptr %0, i64 7
  %15 = load ptr, ptr %14, align 8, !nonnull !14, !align !15, !noundef !14
  %16 = load ptr, ptr %15, align 8, !invariant.load !14, !nonnull !14
  invoke void %16(ptr noundef nonnull align 1 %13)
          to label %27 unwind label %17

17:                                               ; preds = %10
  %18 = landingpad { ptr, i32 }
          cleanup
  %19 = icmp ne ptr %13, null
  tail call void @llvm.assume(i1 %19)
  %20 = getelementptr inbounds i64, ptr %15, i64 1
  %21 = load i64, ptr %20, align 8, !range !82, !invariant.load !14
  %22 = getelementptr inbounds i64, ptr %15, i64 2
  %23 = load i64, ptr %22, align 8, !range !83, !invariant.load !14
  %24 = icmp ult i64 %23, -9223372036854775807
  tail call void @llvm.assume(i1 %24)
  %25 = icmp eq i64 %21, 0
  br i1 %25, label %36, label %26

26:                                               ; preds = %17
  tail call void @__rust_dealloc(ptr noundef nonnull %13, i64 noundef %21, i64 noundef %23) #21
  br label %36

27:                                               ; preds = %10
  %28 = icmp ne ptr %13, null
  tail call void @llvm.assume(i1 %28)
  %29 = getelementptr inbounds i64, ptr %15, i64 1
  %30 = load i64, ptr %29, align 8, !range !82, !invariant.load !14
  %31 = getelementptr inbounds i64, ptr %15, i64 2
  %32 = load i64, ptr %31, align 8, !range !83, !invariant.load !14
  %33 = icmp ult i64 %32, -9223372036854775807
  tail call void @llvm.assume(i1 %33)
  %34 = icmp eq i64 %30, 0
  br i1 %34, label %37, label %35

35:                                               ; preds = %27
  tail call void @__rust_dealloc(ptr noundef nonnull %13, i64 noundef %30, i64 noundef %32) #21
  br label %37

36:                                               ; preds = %26, %17
  tail call void @__rust_dealloc(ptr noundef nonnull %11, i64 noundef 24, i64 noundef 8) #21
  resume { ptr, i32 } %18

37:                                               ; preds = %35, %27
  tail call void @__rust_dealloc(ptr noundef nonnull %11, i64 noundef 24, i64 noundef 8) #21
  br label %38

38:                                               ; preds = %37, %6, %1, %1
  ret void
}

; Function Attrs: cold nonlazybind sanitize_hwaddress uwtable
define hidden fastcc noundef nonnull ptr @"_ZN4core4cell4once17OnceCell$LT$T$GT$15get_or_try_init13outlined_call17h199564876fd879d2E.llvm.9950552589247086825"() unnamed_addr #23 personality ptr @rust_eh_personality {
  %1 = alloca ptr, align 8
  call void @llvm.lifetime.start.p0(i64 8, ptr nonnull %1), !noalias !273
  %2 = tail call { i64, i64 } @_ZN5alloc4sync32arcinner_layout_for_value_layout17h738ec2d39f0d29d9E(i64 noundef 8, i64 noundef 32), !noalias !273
  %3 = extractvalue { i64, i64 } %2, 0
  %4 = extractvalue { i64, i64 } %2, 1
  %5 = icmp eq i64 %4, 0
  br i1 %5, label %6, label %11

6:                                                ; preds = %0
  %7 = add i64 %3, -1
  %8 = icmp sgt i64 %7, -1
  tail call void @llvm.assume(i1 %8), !noalias !273
  %9 = inttoptr i64 %3 to ptr
  %10 = icmp ne i64 %3, 0
  tail call void @llvm.assume(i1 %10), !noalias !273
  br label %16

11:                                               ; preds = %0
  %12 = load volatile i8, ptr @__rust_no_alloc_shim_is_unstable, align 1, !noalias !273
  %13 = add i64 %3, -1
  %14 = icmp sgt i64 %13, -1
  tail call void @llvm.assume(i1 %14), !noalias !273
  %15 = tail call noundef ptr @__rust_alloc(i64 noundef %4, i64 noundef %3) #21, !noalias !273
  br label %16

16:                                               ; preds = %11, %6
  %17 = phi ptr [ %9, %6 ], [ %15, %11 ]
  %18 = icmp eq ptr %17, null
  br i1 %18, label %19, label %20

19:                                               ; preds = %16
  tail call void @_ZN5alloc5alloc18handle_alloc_error17h673e7e4436424ea8E(i64 noundef %3, i64 noundef %4) #34, !noalias !273
  unreachable

20:                                               ; preds = %16
  store i64 1, ptr %17, align 8, !noalias !273
  %21 = getelementptr inbounds { { i64 }, { i64 }, { [4 x i64] } }, ptr %17, i64 0, i32 1
  store i64 1, ptr %21, align 8, !noalias !273
  store ptr %17, ptr %1, align 8, !noalias !273
  %22 = getelementptr inbounds { { i64 }, { i64 }, { [4 x i64] } }, ptr %17, i64 0, i32 2, i32 0, i64 1
  store ptr null, ptr %22, align 8, !noalias !273
  %23 = load atomic i64, ptr @_ZN3std6thread8ThreadId3new7COUNTER17h6745a2e39dcc5381E.llvm.9950552589247086825 monotonic, align 8, !noalias !273
  br label %24

24:                                               ; preds = %28, %20
  %25 = phi i64 [ %23, %20 ], [ %32, %28 ]
  %26 = tail call { i64, i1 } @llvm.uadd.with.overflow.i64(i64 %25, i64 1)
  %27 = extractvalue { i64, i1 } %26, 1
  br i1 %27, label %33, label %28

28:                                               ; preds = %24
  %29 = extractvalue { i64, i1 } %26, 0
  %30 = cmpxchg weak ptr @_ZN3std6thread8ThreadId3new7COUNTER17h6745a2e39dcc5381E.llvm.9950552589247086825, i64 %25, i64 %29 monotonic monotonic, align 8, !noalias !273
  %31 = extractvalue { i64, i1 } %30, 1
  %32 = extractvalue { i64, i1 } %30, 0
  br i1 %31, label %44, label %24

33:                                               ; preds = %24
  invoke fastcc void @_ZN3std6thread8ThreadId3new9exhausted17h4e75d7c8494f096cE.llvm.9950552589247086825() #34
          to label %34 unwind label %35

34:                                               ; preds = %33
  unreachable

35:                                               ; preds = %33
  %36 = landingpad { ptr, i32 }
          cleanup
  tail call void @llvm.experimental.noalias.scope.decl(metadata !276)
  tail call void @llvm.experimental.noalias.scope.decl(metadata !279)
  %37 = load ptr, ptr %1, align 8, !alias.scope !282, !noalias !273, !nonnull !14, !noundef !14
  %38 = atomicrmw sub ptr %37, i64 1 release, align 8, !noalias !282
  %39 = icmp eq i64 %38, 1
  br i1 %39, label %40, label %43

40:                                               ; preds = %35
  fence acquire
  invoke void @"_ZN5alloc4sync16Arc$LT$T$C$A$GT$9drop_slow17h5c3a7c2b9a3dd031E"(ptr noalias noundef nonnull align 8 dereferenceable(8) %1)
          to label %43 unwind label %41

41:                                               ; preds = %40
  %42 = landingpad { ptr, i32 }
          filter [0 x ptr] zeroinitializer
  call void @_ZN4core9panicking16panic_in_cleanup17h0cc56309fdf70f59E() #11
  unreachable

43:                                               ; preds = %40, %35
  resume { ptr, i32 } %36

44:                                               ; preds = %28
  %45 = getelementptr inbounds { { i64 }, { i64 }, { [4 x i64] } }, ptr %17, i64 0, i32 2
  store i64 %29, ptr %45, align 8
  %46 = getelementptr inbounds { { i64 }, { i64 }, { [4 x i64] } }, ptr %17, i64 0, i32 2, i32 0, i64 3
  store i32 0, ptr %46, align 8
  call void @llvm.lifetime.end.p0(i64 8, ptr nonnull %1), !noalias !273
  ret ptr %17
}

; Function Attrs: cold noreturn nonlazybind sanitize_hwaddress uwtable
define hidden fastcc void @_ZN3std6thread8ThreadId3new9exhausted17h4e75d7c8494f096cE.llvm.9950552589247086825() unnamed_addr #10 {
  %1 = alloca { { ptr, i64 }, { ptr, i64 }, { ptr, i64 } }, align 8
  call void @llvm.lifetime.start.p0(i64 48, ptr nonnull %1)
  store ptr @anon.0cbb6f93f2f44bcc75bcce58e553de37.19.llvm.9950552589247086825, ptr %1, align 8
  %2 = getelementptr inbounds { ptr, i64 }, ptr %1, i64 0, i32 1
  store i64 1, ptr %2, align 8
  %3 = getelementptr inbounds { { ptr, i64 }, { ptr, i64 }, { ptr, i64 } }, ptr %1, i64 0, i32 2
  store ptr null, ptr %3, align 8
  %4 = getelementptr inbounds { { ptr, i64 }, { ptr, i64 }, { ptr, i64 } }, ptr %1, i64 0, i32 1
  store ptr @anon.0cbb6f93f2f44bcc75bcce58e553de37.0.llvm.9950552589247086825, ptr %4, align 8
  %5 = getelementptr inbounds { { ptr, i64 }, { ptr, i64 }, { ptr, i64 } }, ptr %1, i64 0, i32 1, i32 1
  store i64 0, ptr %5, align 8
  call void @_ZN4core9panicking9panic_fmt17h9b61d05f69f05277E(ptr noalias nocapture noundef nonnull readonly align 8 dereferenceable(48) %1, ptr noalias noundef nonnull readonly align 8 dereferenceable(24) @anon.0cbb6f93f2f44bcc75bcce58e553de37.20.llvm.9950552589247086825) #34
  unreachable
}

; Function Attrs: nonlazybind sanitize_hwaddress uwtable
define hidden noundef ptr @_ZN3std10sys_common11thread_info14current_thread17hcfcabec6773e8e13E() unnamed_addr #12 personality ptr @rust_eh_personality {
  %1 = alloca { { ptr, i64 }, { ptr, i64 }, { ptr, i64 } }, align 8
  %2 = alloca { ptr, [1 x i64] }, align 8
  %3 = load i8, ptr @_ZN3std10sys_common11thread_info11THREAD_INFO7__getit5STATE17h7821be072859446aE.0.llvm.9950552589247086825, align 1, !noundef !14
  switch i8 %3, label %41 [
    i8 0, label %4
    i8 1, label %9
  ]

4:                                                ; preds = %0
  br i1 icmp ne (ptr @__cxa_thread_atexit_impl, ptr null), label %5, label %7

5:                                                ; preds = %4
  %6 = tail call noundef i32 @__cxa_thread_atexit_impl(ptr noundef nonnull @_ZN3std10sys_common11thread_info11THREAD_INFO7__getit7destroy17hc34ed52ace73fdc4E.llvm.9950552589247086825, ptr noundef nonnull @_ZN3std10sys_common11thread_info11THREAD_INFO7__getit3VAL17h19eae5392b660d96E.llvm.9950552589247086825, ptr noundef nonnull @_rust_extern_with_linkage___dso_handle.llvm.11955502528429326793) #21
  br label %8

7:                                                ; preds = %4
  tail call void @_ZN3std10sys_common17thread_local_dtor22register_dtor_fallback17h1c98fe5f551f3094E(ptr noundef nonnull @_ZN3std10sys_common11thread_info11THREAD_INFO7__getit3VAL17h19eae5392b660d96E.llvm.9950552589247086825, ptr noundef nonnull @_ZN3std10sys_common11thread_info11THREAD_INFO7__getit7destroy17hc34ed52ace73fdc4E.llvm.9950552589247086825)
  br label %8

8:                                                ; preds = %7, %5
  store i8 1, ptr @_ZN3std10sys_common11thread_info11THREAD_INFO7__getit5STATE17h7821be072859446aE.0.llvm.9950552589247086825, align 1
  br label %9

9:                                                ; preds = %8, %0
  %10 = load ptr, ptr getelementptr inbounds (<{ [8 x i8], [16 x i8], [8 x i8] }>, ptr @_ZN3std10sys_common11thread_info11THREAD_INFO7__getit3VAL17h19eae5392b660d96E.llvm.9950552589247086825, i64 0, i32 2, i64 0), align 8, !noundef !14
  %11 = icmp eq ptr %10, null
  br i1 %11, label %12, label %36

12:                                               ; preds = %9
  %13 = tail call fastcc noundef nonnull ptr @"_ZN4core4cell4once17OnceCell$LT$T$GT$15get_or_try_init13outlined_call17h199564876fd879d2E.llvm.9950552589247086825"()
  call void @llvm.lifetime.start.p0(i64 16, ptr nonnull %2)
  tail call void @llvm.experimental.noalias.scope.decl(metadata !283)
  %14 = load ptr, ptr getelementptr inbounds (<{ [8 x i8], [16 x i8], [8 x i8] }>, ptr @_ZN3std10sys_common11thread_info11THREAD_INFO7__getit3VAL17h19eae5392b660d96E.llvm.9950552589247086825, i64 0, i32 2, i64 0), align 8, !noalias !283, !noundef !14
  %15 = icmp eq ptr %14, null
  br i1 %15, label %16, label %17

16:                                               ; preds = %12
  store ptr %13, ptr getelementptr inbounds (<{ [8 x i8], [16 x i8], [8 x i8] }>, ptr @_ZN3std10sys_common11thread_info11THREAD_INFO7__getit3VAL17h19eae5392b660d96E.llvm.9950552589247086825, i64 0, i32 2, i64 0), align 8, !alias.scope !286, !noalias !283
  call void @llvm.lifetime.end.p0(i64 16, ptr nonnull %2)
  br label %36

17:                                               ; preds = %12
  %18 = getelementptr inbounds { ptr, ptr }, ptr %2, i64 0, i32 1
  store ptr %13, ptr %18, align 8, !alias.scope !283
  store ptr getelementptr inbounds (<{ [8 x i8], [16 x i8], [8 x i8] }>, ptr @_ZN3std10sys_common11thread_info11THREAD_INFO7__getit3VAL17h19eae5392b660d96E.llvm.9950552589247086825, i64 0, i32 2, i64 0), ptr %2, align 8, !alias.scope !283
  call void @llvm.lifetime.start.p0(i64 48, ptr nonnull %1)
  store ptr @anon.0cbb6f93f2f44bcc75bcce58e553de37.2.llvm.9950552589247086825, ptr %1, align 8
  %19 = getelementptr inbounds { ptr, i64 }, ptr %1, i64 0, i32 1
  store i64 1, ptr %19, align 8
  %20 = getelementptr inbounds { { ptr, i64 }, { ptr, i64 }, { ptr, i64 } }, ptr %1, i64 0, i32 2
  store ptr null, ptr %20, align 8
  %21 = getelementptr inbounds { { ptr, i64 }, { ptr, i64 }, { ptr, i64 } }, ptr %1, i64 0, i32 1
  store ptr @anon.0cbb6f93f2f44bcc75bcce58e553de37.0.llvm.9950552589247086825, ptr %21, align 8
  %22 = getelementptr inbounds { { ptr, i64 }, { ptr, i64 }, { ptr, i64 } }, ptr %1, i64 0, i32 1, i32 1
  store i64 0, ptr %22, align 8
  invoke void @_ZN4core9panicking9panic_fmt17h9b61d05f69f05277E(ptr noalias nocapture noundef nonnull readonly align 8 dereferenceable(48) %1, ptr noalias noundef nonnull readonly align 8 dereferenceable(24) @anon.0cbb6f93f2f44bcc75bcce58e553de37.4.llvm.9950552589247086825) #34
          to label %32 unwind label %23

23:                                               ; preds = %17
  %24 = landingpad { ptr, i32 }
          cleanup
  tail call void @llvm.experimental.noalias.scope.decl(metadata !289)
  %25 = load ptr, ptr %2, align 8, !alias.scope !289, !noundef !14
  %26 = icmp eq ptr %25, null
  br i1 %26, label %35, label %27

27:                                               ; preds = %23
  tail call void @llvm.experimental.noalias.scope.decl(metadata !292)
  tail call void @llvm.experimental.noalias.scope.decl(metadata !295)
  tail call void @llvm.experimental.noalias.scope.decl(metadata !298)
  tail call void @llvm.experimental.noalias.scope.decl(metadata !301)
  tail call void @llvm.experimental.noalias.scope.decl(metadata !304)
  %28 = load ptr, ptr %18, align 8, !alias.scope !307, !nonnull !14, !noundef !14
  %29 = atomicrmw sub ptr %28, i64 1 release, align 8, !noalias !307
  %30 = icmp eq i64 %29, 1
  br i1 %30, label %31, label %35

31:                                               ; preds = %27
  fence acquire
  invoke void @"_ZN5alloc4sync16Arc$LT$T$C$A$GT$9drop_slow17h3b62d525f760b56dE"(ptr noalias noundef nonnull align 8 dereferenceable(8) %18)
          to label %35 unwind label %33

32:                                               ; preds = %17
  unreachable

33:                                               ; preds = %31
  %34 = landingpad { ptr, i32 }
          filter [0 x ptr] zeroinitializer
  call void @_ZN4core9panicking16panic_in_cleanup17h0cc56309fdf70f59E() #11
  unreachable

35:                                               ; preds = %31, %27, %23
  resume { ptr, i32 } %24

36:                                               ; preds = %16, %9
  %37 = load ptr, ptr getelementptr inbounds (<{ [8 x i8], [16 x i8], [8 x i8] }>, ptr @_ZN3std10sys_common11thread_info11THREAD_INFO7__getit3VAL17h19eae5392b660d96E.llvm.9950552589247086825, i64 0, i32 2, i64 0), align 8, !nonnull !14, !noundef !14
  %38 = atomicrmw add ptr %37, i64 1 monotonic, align 8
  %39 = icmp slt i64 %38, 0
  br i1 %39, label %40, label %41

40:                                               ; preds = %36
  tail call void @llvm.trap()
  unreachable

41:                                               ; preds = %36, %0
  %42 = phi ptr [ %37, %36 ], [ null, %0 ]
  ret ptr %42
}

; Function Attrs: nounwind nonlazybind sanitize_hwaddress uwtable
declare hidden void @_ZN3std10sys_common11thread_info11THREAD_INFO7__getit7destroy17hc34ed52ace73fdc4E.llvm.9950552589247086825(ptr noundef) unnamed_addr #20

; Function Attrs: nonlazybind sanitize_hwaddress uwtable
define hidden noundef ptr @_ZN3std2io5Write9write_fmt17hc450c2a975ecb6f3E(ptr noalias noundef nonnull align 1 %0, ptr noalias nocapture noundef readonly align 8 dereferenceable(48) %1) unnamed_addr #12 personality ptr @rust_eh_personality {
  %3 = alloca { ptr, ptr }, align 8
  call void @llvm.lifetime.start.p0(i64 16, ptr nonnull %3)
  store ptr %0, ptr %3, align 8
  %4 = getelementptr inbounds { ptr, ptr }, ptr %3, i64 0, i32 1
  store ptr null, ptr %4, align 8
  %5 = invoke noundef zeroext i1 @_ZN4core3fmt5write17h93b330e7c1ab4f05E(ptr noundef nonnull align 1 %3, ptr noalias noundef nonnull readonly align 8 dereferenceable(24) @anon.0cbb6f93f2f44bcc75bcce58e553de37.58.llvm.9950552589247086825, ptr noalias nocapture noundef nonnull readonly align 8 dereferenceable(48) %1)
          to label %11 unwind label %6

6:                                                ; preds = %2
  %7 = landingpad { ptr, i32 }
          cleanup
  %8 = load ptr, ptr %4, align 8, !alias.scope !308, !noundef !14
  %9 = icmp eq ptr %8, null
  br i1 %9, label %22, label %10

10:                                               ; preds = %6
  invoke fastcc void @"_ZN4core3ptr42drop_in_place$LT$std..io..error..Error$GT$17h99f3a84feb436a8eE.llvm.9950552589247086825"(ptr nonnull %8)
          to label %22 unwind label %20

11:                                               ; preds = %2
  %12 = load ptr, ptr %4, align 8
  %13 = icmp eq ptr %12, null
  br i1 %5, label %14, label %18

14:                                               ; preds = %11
  %15 = select i1 %13, ptr @anon.0cbb6f93f2f44bcc75bcce58e553de37.56.llvm.9950552589247086825, ptr %12
  br label %16

16:                                               ; preds = %19, %18, %14
  %17 = phi ptr [ null, %18 ], [ null, %19 ], [ %15, %14 ]
  call void @llvm.lifetime.end.p0(i64 16, ptr nonnull %3)
  ret ptr %17

18:                                               ; preds = %11
  br i1 %13, label %16, label %19

19:                                               ; preds = %18
  call fastcc void @"_ZN4core3ptr42drop_in_place$LT$std..io..error..Error$GT$17h99f3a84feb436a8eE.llvm.9950552589247086825"(ptr nonnull %12)
  br label %16

20:                                               ; preds = %10
  %21 = landingpad { ptr, i32 }
          filter [0 x ptr] zeroinitializer
  call void @_ZN4core9panicking16panic_in_cleanup17h0cc56309fdf70f59E() #11
  unreachable

22:                                               ; preds = %10, %6
  resume { ptr, i32 } %7
}

; Function Attrs: nonlazybind sanitize_hwaddress uwtable
declare hidden void @_ZN3std5alloc24default_alloc_error_hook17hce84c79c485e2376E(i64, i64 noundef) unnamed_addr #12

; Function Attrs: mustprogress nounwind nonlazybind sanitize_hwaddress willreturn allockind("free") memory(argmem: readwrite, inaccessiblemem: readwrite) uwtable
declare void @free(ptr allocptr nocapture noundef) unnamed_addr #28

; Function Attrs: noreturn nounwind nonlazybind sanitize_hwaddress uwtable
declare void @abort() unnamed_addr #18

; Function Attrs: noreturn nounwind nonlazybind sanitize_hwaddress uwtable
define hidden void @_ZN3std3sys4unix14abort_internal17h4cce76577424ac08E() unnamed_addr #18 {
  tail call void @abort() #35
  unreachable
}

; Function Attrs: noreturn nonlazybind sanitize_hwaddress uwtable
define hidden void @_ZN3std5alloc8rust_oom17hec033ed1b055d5e7E(i64 noundef %0, i64 noundef %1) unnamed_addr #25 {
  %3 = load atomic i64, ptr @_ZN3std5alloc4HOOK17h01f4de106dbc950eE seq_cst, align 8
  %4 = inttoptr i64 %3 to ptr
  %5 = icmp eq i64 %3, 0
  %6 = select i1 %5, ptr @_ZN3std5alloc24default_alloc_error_hook17hce84c79c485e2376E, ptr %4
  tail call void %6(i64 noundef %0, i64 noundef %1)
  tail call void @_ZN3std7process5abort17h7a8a1782dc50807dE() #34
  unreachable
}

; Function Attrs: noreturn nonlazybind sanitize_hwaddress uwtable
define hidden void @__rg_oom(i64 noundef %0, i64 noundef %1) #25 {
  %3 = icmp ne i64 %1, 0
  tail call void @llvm.assume(i1 %3)
  %4 = icmp ult i64 %1, -9223372036854775807
  tail call void @llvm.assume(i1 %4)
  tail call void @_ZN3std5alloc8rust_oom17hec033ed1b055d5e7E(i64 noundef %1, i64 noundef %0) #34
  unreachable
}

; Function Attrs: nonlazybind sanitize_hwaddress uwtable
define hidden void @"_ZN4core3ptr42drop_in_place$LT$std..io..error..Error$GT$17h99f3a84feb436a8eE.llvm.2066376875822331276"(ptr noalias nocapture noundef readonly align 8 dereferenceable(8) %0) unnamed_addr #12 personality ptr @rust_eh_personality {
  %2 = load ptr, ptr %0, align 8, !nonnull !14, !noundef !14
  %3 = ptrtoint ptr %2 to i64
  %4 = and i64 %3, 3
  switch i64 %4, label %5 [
    i64 2, label %38
    i64 3, label %6
    i64 0, label %38
    i64 1, label %10
  ]

5:                                                ; preds = %1
  unreachable

6:                                                ; preds = %1
  %7 = lshr i64 %3, 32
  %8 = trunc i64 %7 to i32
  %9 = icmp ult i32 %8, 41
  tail call void @llvm.assume(i1 %9)
  br label %38

10:                                               ; preds = %1
  %11 = getelementptr i8, ptr %2, i64 -1
  %12 = icmp ne ptr %11, null
  tail call void @llvm.assume(i1 %12)
  %13 = load ptr, ptr %11, align 8, !noundef !14
  %14 = getelementptr i8, ptr %2, i64 7
  %15 = load ptr, ptr %14, align 8, !nonnull !14, !align !15, !noundef !14
  %16 = load ptr, ptr %15, align 8, !invariant.load !14, !nonnull !14
  invoke void %16(ptr noundef nonnull align 1 %13)
          to label %27 unwind label %17

17:                                               ; preds = %10
  %18 = landingpad { ptr, i32 }
          cleanup
  %19 = icmp ne ptr %13, null
  tail call void @llvm.assume(i1 %19)
  %20 = getelementptr inbounds i64, ptr %15, i64 1
  %21 = load i64, ptr %20, align 8, !range !82, !invariant.load !14
  %22 = getelementptr inbounds i64, ptr %15, i64 2
  %23 = load i64, ptr %22, align 8, !range !83, !invariant.load !14
  %24 = icmp ult i64 %23, -9223372036854775807
  tail call void @llvm.assume(i1 %24)
  %25 = icmp eq i64 %21, 0
  br i1 %25, label %36, label %26

26:                                               ; preds = %17
  tail call void @__rust_dealloc(ptr noundef nonnull %13, i64 noundef %21, i64 noundef %23) #21
  br label %36

27:                                               ; preds = %10
  %28 = icmp ne ptr %13, null
  tail call void @llvm.assume(i1 %28)
  %29 = getelementptr inbounds i64, ptr %15, i64 1
  %30 = load i64, ptr %29, align 8, !range !82, !invariant.load !14
  %31 = getelementptr inbounds i64, ptr %15, i64 2
  %32 = load i64, ptr %31, align 8, !range !83, !invariant.load !14
  %33 = icmp ult i64 %32, -9223372036854775807
  tail call void @llvm.assume(i1 %33)
  %34 = icmp eq i64 %30, 0
  br i1 %34, label %37, label %35

35:                                               ; preds = %27
  tail call void @__rust_dealloc(ptr noundef nonnull %13, i64 noundef %30, i64 noundef %32) #21
  br label %37

36:                                               ; preds = %26, %17
  tail call void @__rust_dealloc(ptr noundef nonnull %11, i64 noundef 24, i64 noundef 8) #21
  resume { ptr, i32 } %18

37:                                               ; preds = %35, %27
  tail call void @__rust_dealloc(ptr noundef nonnull %11, i64 noundef 24, i64 noundef 8) #21
  br label %38

38:                                               ; preds = %37, %6, %1, %1
  ret void
}

; Function Attrs: nonlazybind sanitize_hwaddress uwtable
declare hidden noundef zeroext i1 @"_ZN44_$LT$$RF$T$u20$as$u20$core..fmt..Display$GT$3fmt17h3ec08a11ffdb3d12E"(ptr noalias nocapture noundef readonly align 8 dereferenceable(8), ptr noalias noundef align 8 dereferenceable(64)) unnamed_addr #12

; Function Attrs: nonlazybind sanitize_hwaddress uwtable
declare hidden noundef zeroext i1 @"_ZN44_$LT$$RF$T$u20$as$u20$core..fmt..Display$GT$3fmt17hccaff9d104b97a25E"(ptr noalias nocapture noundef readonly align 8 dereferenceable(16), ptr noalias noundef align 8 dereferenceable(64)) unnamed_addr #12

; Function Attrs: nonlazybind sanitize_hwaddress uwtable
define hidden fastcc void @"_ZN4core3ptr81drop_in_place$LT$core..result..Result$LT$$LP$$RP$$C$std..io..error..Error$GT$$GT$17h69a169799d202746E.llvm.2066376875822331276"(ptr noalias nocapture noundef readonly align 8 dereferenceable(8) %0) unnamed_addr #12 {
  %2 = load ptr, ptr %0, align 8, !noundef !14
  %3 = icmp eq ptr %2, null
  br i1 %3, label %4, label %5

4:                                                ; preds = %5, %1
  ret void

5:                                                ; preds = %1
  tail call void @"_ZN4core3ptr42drop_in_place$LT$std..io..error..Error$GT$17h99f3a84feb436a8eE.llvm.2066376875822331276"(ptr noalias noundef nonnull align 8 dereferenceable(8) %0)
  br label %4
}

; Function Attrs: nofree nounwind nonlazybind sanitize_hwaddress uwtable
define hidden noundef ptr @__rdl_alloc(i64 noundef %0, i64 noundef %1) #29 personality ptr @rust_eh_personality {
  %3 = alloca ptr, align 8
  %4 = icmp ne i64 %1, 0
  tail call void @llvm.assume(i1 %4)
  %5 = icmp ult i64 %1, -9223372036854775807
  tail call void @llvm.assume(i1 %5)
  %6 = icmp ugt i64 %1, 16
  %7 = icmp ugt i64 %1, %0
  %8 = or i1 %6, %7
  br i1 %8, label %9, label %17

9:                                                ; preds = %2
  call void @llvm.lifetime.start.p0(i64 8, ptr nonnull %3)
  store ptr null, ptr %3, align 8
  %10 = tail call i64 @llvm.umax.i64(i64 %1, i64 8)
  %11 = call noundef i32 @posix_memalign(ptr noundef nonnull %3, i64 noundef %10, i64 noundef %0) #21
  %12 = icmp eq i32 %11, 0
  br i1 %12, label %13, label %15

13:                                               ; preds = %9
  %14 = load ptr, ptr %3, align 8, !noundef !14
  br label %15

15:                                               ; preds = %13, %9
  %16 = phi ptr [ %14, %13 ], [ null, %9 ]
  call void @llvm.lifetime.end.p0(i64 8, ptr nonnull %3)
  br label %19

17:                                               ; preds = %2
  %18 = tail call noundef ptr @malloc(i64 noundef %0) #21
  br label %19

19:                                               ; preds = %17, %15
  %20 = phi ptr [ %18, %17 ], [ %16, %15 ]
  ret ptr %20
}

; Function Attrs: nofree nounwind nonlazybind sanitize_hwaddress uwtable
declare noundef i32 @posix_memalign(ptr noundef, i64 noundef, i64 noundef) unnamed_addr #29

; Function Attrs: mustprogress nofree nounwind nonlazybind sanitize_hwaddress willreturn allockind("alloc,uninitialized") allocsize(0) memory(inaccessiblemem: readwrite) uwtable
declare noalias noundef ptr @malloc(i64 noundef) unnamed_addr #30

; Function Attrs: mustprogress nounwind nonlazybind sanitize_hwaddress willreturn memory(argmem: readwrite, inaccessiblemem: readwrite) uwtable
define hidden void @__rdl_dealloc(ptr nocapture noundef %0, i64 noundef %1, i64 noundef %2) #31 {
  %4 = icmp ne i64 %2, 0
  tail call void @llvm.assume(i1 %4)
  %5 = icmp ult i64 %2, -9223372036854775807
  tail call void @llvm.assume(i1 %5)
  tail call void @free(ptr noundef %0) #21
  ret void
}

; Function Attrs: nonlazybind sanitize_hwaddress uwtable
define hidden noundef i64 @_ZN3std10sys_common16thread_local_key9StaticKey9lazy_init17h2ffdd9bb1b16082fE(ptr nocapture noundef nonnull align 8 %0) unnamed_addr #12 {
  %2 = alloca [0 x { ptr, ptr }], align 8
  %3 = alloca { ptr, [5 x i64] }, align 8
  %4 = alloca i32, align 4
  %5 = alloca i32, align 4
  %6 = alloca { ptr, [5 x i64] }, align 8
  %7 = alloca i32, align 4
  %8 = alloca i32, align 4
  %9 = alloca { { ptr, i64 }, { ptr, i64 }, { ptr, i64 } }, align 8
  %10 = alloca ptr, align 8
  %11 = getelementptr inbounds { { i64 }, ptr }, ptr %0, i64 0, i32 1
  %12 = load ptr, ptr %11, align 8, !noundef !14
  call void @llvm.lifetime.start.p0(i64 4, ptr nonnull %8)
  store i32 0, ptr %8, align 4
  call void @llvm.lifetime.start.p0(i64 4, ptr nonnull %7)
  %13 = call noundef i32 @pthread_key_create(ptr noundef nonnull %8, ptr noundef %12) #21
  store i32 %13, ptr %7, align 4
  %14 = icmp eq i32 %13, 0
  br i1 %14, label %15, label %18

15:                                               ; preds = %1
  call void @llvm.lifetime.end.p0(i64 4, ptr nonnull %7)
  %16 = load i32, ptr %8, align 4, !noundef !14
  call void @llvm.lifetime.end.p0(i64 4, ptr nonnull %8)
  %17 = icmp eq i32 %16, 0
  br i1 %17, label %19, label %34

18:                                               ; preds = %1
  call void @llvm.lifetime.start.p0(i64 48, ptr nonnull %6)
  store ptr null, ptr %6, align 8
  call void @_ZN4core9panicking13assert_failed17he699476c42b9f8c3E(i8 noundef 0, ptr noalias noundef nonnull readonly align 4 dereferenceable(4) %7, ptr noalias noundef nonnull readonly align 4 dereferenceable(4) @anon.ee5193789b5b465411d575523ab741f0.69.llvm.2066376875822331276, ptr noalias nocapture noundef nonnull align 8 dereferenceable(48) %6, ptr noalias noundef nonnull readonly align 8 dereferenceable(24) @anon.ee5193789b5b465411d575523ab741f0.71.llvm.2066376875822331276) #34
  unreachable

19:                                               ; preds = %15
  %20 = load ptr, ptr %11, align 8, !noundef !14
  call void @llvm.lifetime.start.p0(i64 4, ptr nonnull %5)
  store i32 0, ptr %5, align 4
  call void @llvm.lifetime.start.p0(i64 4, ptr nonnull %4)
  %21 = call noundef i32 @pthread_key_create(ptr noundef nonnull %5, ptr noundef %20) #21
  store i32 %21, ptr %4, align 4
  %22 = icmp eq i32 %21, 0
  br i1 %22, label %24, label %23

23:                                               ; preds = %19
  call void @llvm.lifetime.start.p0(i64 48, ptr nonnull %3)
  store ptr null, ptr %3, align 8
  call void @_ZN4core9panicking13assert_failed17he699476c42b9f8c3E(i8 noundef 0, ptr noalias noundef nonnull readonly align 4 dereferenceable(4) %4, ptr noalias noundef nonnull readonly align 4 dereferenceable(4) @anon.ee5193789b5b465411d575523ab741f0.69.llvm.2066376875822331276, ptr noalias nocapture noundef nonnull align 8 dereferenceable(48) %3, ptr noalias noundef nonnull readonly align 8 dereferenceable(24) @anon.ee5193789b5b465411d575523ab741f0.71.llvm.2066376875822331276) #34
  unreachable

24:                                               ; preds = %19
  call void @llvm.lifetime.end.p0(i64 4, ptr nonnull %4)
  %25 = load i32, ptr %5, align 4, !noundef !14
  call void @llvm.lifetime.end.p0(i64 4, ptr nonnull %5)
  %26 = call noundef i32 @pthread_key_delete(i32 noundef 0) #21
  %27 = icmp eq i32 %25, 0
  br i1 %27, label %28, label %34

28:                                               ; preds = %24
  call void @llvm.lifetime.start.p0(i64 8, ptr nonnull %10)
  call void @llvm.lifetime.start.p0(i64 48, ptr nonnull %9)
  store ptr @anon.ee5193789b5b465411d575523ab741f0.73.llvm.2066376875822331276, ptr %9, align 8, !alias.scope !311, !noalias !314
  %29 = getelementptr inbounds { ptr, i64 }, ptr %9, i64 0, i32 1
  store i64 1, ptr %29, align 8, !alias.scope !311, !noalias !314
  %30 = getelementptr inbounds { { ptr, i64 }, { ptr, i64 }, { ptr, i64 } }, ptr %9, i64 0, i32 2
  store ptr null, ptr %30, align 8, !alias.scope !311, !noalias !314
  %31 = getelementptr inbounds { { ptr, i64 }, { ptr, i64 }, { ptr, i64 } }, ptr %9, i64 0, i32 1
  store ptr %2, ptr %31, align 8, !alias.scope !311, !noalias !314
  %32 = getelementptr inbounds { { ptr, i64 }, { ptr, i64 }, { ptr, i64 } }, ptr %9, i64 0, i32 1, i32 1
  store i64 0, ptr %32, align 8, !alias.scope !311, !noalias !314
  %33 = call noundef ptr @_ZN3std2io5Write9write_fmt17hc450c2a975ecb6f3E(ptr noalias noundef nonnull align 1 %2, ptr noalias nocapture noundef nonnull align 8 dereferenceable(48) %9)
  store ptr %33, ptr %10, align 8
  call void @llvm.lifetime.end.p0(i64 48, ptr nonnull %9)
  call fastcc void @"_ZN4core3ptr81drop_in_place$LT$core..result..Result$LT$$LP$$RP$$C$std..io..error..Error$GT$$GT$17h69a169799d202746E.llvm.2066376875822331276"(ptr noalias noundef nonnull align 8 dereferenceable(8) %10)
  call void @llvm.lifetime.end.p0(i64 8, ptr nonnull %10)
  call void @_ZN3std3sys4unix14abort_internal17h4cce76577424ac08E() #34
  unreachable

34:                                               ; preds = %24, %15
  %35 = phi i32 [ %25, %24 ], [ %16, %15 ]
  %36 = zext i32 %35 to i64
  %37 = cmpxchg ptr %0, i64 0, i64 %36 seq_cst seq_cst, align 8
  %38 = extractvalue { i64, i1 } %37, 1
  br i1 %38, label %42, label %39

39:                                               ; preds = %34
  %40 = extractvalue { i64, i1 } %37, 0
  %41 = call noundef i32 @pthread_key_delete(i32 noundef %35) #21
  br label %42

42:                                               ; preds = %39, %34
  %43 = phi i64 [ %40, %39 ], [ %36, %34 ]
  ret i64 %43
}

; Function Attrs: nounwind nonlazybind sanitize_hwaddress uwtable
declare noundef i32 @pthread_key_create(ptr noundef, ptr noundef) unnamed_addr #20

; Function Attrs: nounwind nonlazybind sanitize_hwaddress uwtable
declare noundef i32 @pthread_key_delete(i32 noundef) unnamed_addr #20

; Function Attrs: cold noinline noreturn nonlazybind sanitize_hwaddress uwtable
define hidden void @_ZN4core9panicking13assert_failed17he699476c42b9f8c3E(i8 noundef %0, ptr noalias noundef readonly align 4 dereferenceable(4) %1, ptr noalias noundef readonly align 4 dereferenceable(4) %2, ptr noalias nocapture noundef readonly align 8 dereferenceable(48) %3, ptr noalias noundef readonly align 8 dereferenceable(24) %4) unnamed_addr #14 {
  %6 = alloca ptr, align 8
  %7 = alloca ptr, align 8
  store ptr %1, ptr %7, align 8
  store ptr %2, ptr %6, align 8
  call void @_ZN4core9panicking19assert_failed_inner17h551a1bf80c6bea97E(i8 noundef %0, ptr noundef nonnull align 1 %7, ptr noalias noundef nonnull readonly align 8 dereferenceable(24) @anon.2413429f16703b81589f952b15841abb.15, ptr noundef nonnull align 1 %6, ptr noalias noundef nonnull readonly align 8 dereferenceable(24) @anon.2413429f16703b81589f952b15841abb.15, ptr noalias nocapture noundef nonnull readonly align 8 dereferenceable(48) %3, ptr noalias noundef nonnull readonly align 8 dereferenceable(24) %4) #34
  unreachable
}

; Function Attrs: nonlazybind sanitize_hwaddress uwtable
declare hidden noundef zeroext i1 @"_ZN60_$LT$std..io..error..Error$u20$as$u20$core..fmt..Display$GT$3fmt17he6dd421bb2ad9edaE"(ptr noalias nocapture noundef readonly align 8 dereferenceable(8), ptr noalias noundef align 8 dereferenceable(64)) unnamed_addr #12

; Function Attrs: nounwind nonlazybind sanitize_hwaddress uwtable
declare noundef i32 @rust_eh_personality(i32 noundef, i32 noundef, i64, ptr noundef, ptr noundef) unnamed_addr #20

; Function Attrs: nonlazybind sanitize_hwaddress uwtable
define hidden fastcc void @"_ZN4core3ptr42drop_in_place$LT$std..io..error..Error$GT$17h99f3a84feb436a8eE.llvm.11955502528429326793"(ptr %0) unnamed_addr #12 personality ptr @rust_eh_personality {
  %2 = icmp ne ptr %0, null
  tail call void @llvm.assume(i1 %2)
  %3 = ptrtoint ptr %0 to i64
  %4 = and i64 %3, 3
  switch i64 %4, label %5 [
    i64 2, label %38
    i64 3, label %6
    i64 0, label %38
    i64 1, label %10
  ]

5:                                                ; preds = %1
  unreachable

6:                                                ; preds = %1
  %7 = lshr i64 %3, 32
  %8 = trunc i64 %7 to i32
  %9 = icmp ult i32 %8, 41
  tail call void @llvm.assume(i1 %9)
  br label %38

10:                                               ; preds = %1
  %11 = getelementptr i8, ptr %0, i64 -1
  %12 = icmp ne ptr %11, null
  tail call void @llvm.assume(i1 %12)
  %13 = load ptr, ptr %11, align 8, !noundef !14
  %14 = getelementptr i8, ptr %0, i64 7
  %15 = load ptr, ptr %14, align 8, !nonnull !14, !align !15, !noundef !14
  %16 = load ptr, ptr %15, align 8, !invariant.load !14, !nonnull !14
  invoke void %16(ptr noundef nonnull align 1 %13)
          to label %27 unwind label %17

17:                                               ; preds = %10
  %18 = landingpad { ptr, i32 }
          cleanup
  %19 = icmp ne ptr %13, null
  tail call void @llvm.assume(i1 %19)
  %20 = getelementptr inbounds i64, ptr %15, i64 1
  %21 = load i64, ptr %20, align 8, !range !82, !invariant.load !14
  %22 = getelementptr inbounds i64, ptr %15, i64 2
  %23 = load i64, ptr %22, align 8, !range !83, !invariant.load !14
  %24 = icmp ult i64 %23, -9223372036854775807
  tail call void @llvm.assume(i1 %24)
  %25 = icmp eq i64 %21, 0
  br i1 %25, label %36, label %26

26:                                               ; preds = %17
  tail call void @__rust_dealloc(ptr noundef nonnull %13, i64 noundef %21, i64 noundef %23) #21
  br label %36

27:                                               ; preds = %10
  %28 = icmp ne ptr %13, null
  tail call void @llvm.assume(i1 %28)
  %29 = getelementptr inbounds i64, ptr %15, i64 1
  %30 = load i64, ptr %29, align 8, !range !82, !invariant.load !14
  %31 = getelementptr inbounds i64, ptr %15, i64 2
  %32 = load i64, ptr %31, align 8, !range !83, !invariant.load !14
  %33 = icmp ult i64 %32, -9223372036854775807
  tail call void @llvm.assume(i1 %33)
  %34 = icmp eq i64 %30, 0
  br i1 %34, label %37, label %35

35:                                               ; preds = %27
  tail call void @__rust_dealloc(ptr noundef nonnull %13, i64 noundef %30, i64 noundef %32) #21
  br label %37

36:                                               ; preds = %26, %17
  tail call void @__rust_dealloc(ptr noundef nonnull %11, i64 noundef 24, i64 noundef 8) #21
  resume { ptr, i32 } %18

37:                                               ; preds = %35, %27
  tail call void @__rust_dealloc(ptr noundef nonnull %11, i64 noundef 24, i64 noundef 8) #21
  br label %38

38:                                               ; preds = %37, %6, %1, %1
  ret void
}

; Function Attrs: nounwind nonlazybind sanitize_hwaddress uwtable
define hidden fastcc void @"_ZN4core3ptr65drop_in_place$LT$std..sync..mutex..MutexGuard$LT$$LP$$RP$$GT$$GT$17h81bac4ea27c9ba8bE.llvm.11955502528429326793"(ptr noalias nocapture noundef readonly align 8 dereferenceable(16) %0) unnamed_addr #20 {
  tail call void @llvm.experimental.noalias.scope.decl(metadata !317)
  %2 = load ptr, ptr %0, align 8, !alias.scope !317, !nonnull !14, !align !320, !noundef !14
  %3 = getelementptr inbounds { { { i32 } }, { { i8 } }, { {} }, [3 x i8] }, ptr %2, i64 0, i32 1
  %4 = getelementptr inbounds { ptr, i8 }, ptr %0, i64 0, i32 1
  %5 = load i8, ptr %4, align 8, !range !96, !alias.scope !317, !noundef !14
  %6 = icmp eq i8 %5, 0
  br i1 %6, label %7, label %14

7:                                                ; preds = %1
  %8 = load atomic i64, ptr @_ZN3std9panicking11panic_count18GLOBAL_PANIC_COUNT17hbd0a618f0d2566aaE monotonic, align 8, !noalias !317
  %9 = and i64 %8, 9223372036854775807
  %10 = icmp eq i64 %9, 0
  br i1 %10, label %14, label %11

11:                                               ; preds = %7
  %12 = tail call noundef zeroext i1 @_ZN3std9panicking11panic_count17is_zero_slow_path17hb0fb1c6a103a0962E(), !noalias !317
  br i1 %12, label %14, label %13

13:                                               ; preds = %11
  store atomic i8 1, ptr %3 monotonic, align 4, !noalias !317
  br label %14

14:                                               ; preds = %13, %11, %7, %1
  %15 = atomicrmw xchg ptr %2, i32 0 release, align 4, !noalias !317
  %16 = icmp eq i32 %15, 2
  br i1 %16, label %17, label %19

17:                                               ; preds = %14
  %18 = tail call noundef i64 (i64, ...) @syscall(i64 noundef 202, ptr noundef nonnull %2, i32 noundef 129, i32 noundef 1) #21, !noalias !317
  br label %19

19:                                               ; preds = %17, %14
  ret void
}

; Function Attrs: cold mustprogress nofree noinline norecurse nosync nounwind nonlazybind sanitize_hwaddress willreturn memory(read, argmem: none, inaccessiblemem: none) uwtable
define hidden noundef zeroext i1 @_ZN3std9panicking11panic_count17is_zero_slow_path17hb0fb1c6a103a0962E() unnamed_addr #32 personality ptr @rust_eh_personality {
  %1 = load i64, ptr @_ZN3std9panicking11panic_count17LOCAL_PANIC_COUNT7__getit3VAL17ha70c7fdbb65d7f5fE.0.llvm.11955502528429326793, align 8, !noundef !14
  %2 = icmp eq i64 %1, 0
  ret i1 %2
}

; Function Attrs: nounwind nonlazybind sanitize_hwaddress uwtable
define hidden fastcc void @"_ZN4core3ptr47drop_in_place$LT$std..io..stdio..StderrLock$GT$17hb5ddb5cb80d7beb4E"(ptr noalias nocapture noundef readonly align 8 dereferenceable(8) %0) unnamed_addr #20 {
  tail call void @llvm.experimental.noalias.scope.decl(metadata !321)
  tail call void @llvm.experimental.noalias.scope.decl(metadata !324)
  %2 = load ptr, ptr %0, align 8, !alias.scope !327, !nonnull !14, !align !15, !noundef !14
  %3 = getelementptr inbounds { { i64 }, i64, { { i32 } }, i32 }, ptr %2, i64 0, i32 3
  %4 = load i32, ptr %3, align 4, !noalias !327, !noundef !14
  %5 = add i32 %4, -1
  store i32 %5, ptr %3, align 4, !noalias !327
  %6 = icmp eq i32 %5, 0
  br i1 %6, label %7, label %13

7:                                                ; preds = %1
  store atomic i64 0, ptr %2 monotonic, align 8, !noalias !327
  %8 = getelementptr inbounds { { i64 }, i64, { { i32 } }, i32 }, ptr %2, i64 0, i32 2
  %9 = atomicrmw xchg ptr %8, i32 0 release, align 4, !noalias !327
  %10 = icmp eq i32 %9, 2
  br i1 %10, label %11, label %13

11:                                               ; preds = %7
  %12 = tail call noundef i64 (i64, ...) @syscall(i64 noundef 202, ptr noundef nonnull %8, i32 noundef 129, i32 noundef 1) #21, !noalias !327
  br label %13

13:                                               ; preds = %11, %7, %1
  ret void
}

; Function Attrs: nonlazybind sanitize_hwaddress uwtable
define hidden noundef ptr @"_ZN61_$LT$$RF$std..io..stdio..Stderr$u20$as$u20$std..io..Write$GT$9write_fmt17hbc3726f6c8c2b0e8E"(ptr noalias nocapture noundef readonly align 8 dereferenceable(8) %0, ptr noalias nocapture noundef readonly align 8 dereferenceable(48) %1) unnamed_addr #12 personality ptr @rust_eh_personality {
  %3 = alloca { ptr, ptr }, align 8
  %4 = alloca ptr, align 8
  call void @llvm.lifetime.start.p0(i64 8, ptr nonnull %4)
  %5 = load ptr, ptr %0, align 8, !nonnull !14, !align !15, !noundef !14
  tail call void @llvm.experimental.noalias.scope.decl(metadata !328)
  %6 = load ptr, ptr %5, align 8, !alias.scope !328, !nonnull !14, !align !15, !noundef !14
  %7 = load atomic i64, ptr %6 monotonic, align 8, !noalias !328
  %8 = icmp eq i64 %7, ptrtoint (ptr @_ZN3std4sync7remutex25current_thread_unique_ptr1X7__getit3VAL17hb426793cccdb2321E.llvm.11955502528429326793 to i64)
  br i1 %8, label %16, label %9

9:                                                ; preds = %2
  %10 = getelementptr inbounds { { i64 }, i64, { { i32 } }, i32 }, ptr %6, i64 0, i32 2
  %11 = cmpxchg ptr %10, i32 0, i32 1 acquire monotonic, align 4, !noalias !328
  %12 = extractvalue { i32, i1 } %11, 1
  br i1 %12, label %14, label %13

13:                                               ; preds = %9
  tail call void @_ZN3std3sys4unix5locks11futex_mutex5Mutex14lock_contended17hd04b1a3ad9b934f4E(ptr noundef nonnull align 4 %10), !noalias !328
  br label %14

14:                                               ; preds = %13, %9
  store atomic i64 ptrtoint (ptr @_ZN3std4sync7remutex25current_thread_unique_ptr1X7__getit3VAL17hb426793cccdb2321E.llvm.11955502528429326793 to i64), ptr %6 monotonic, align 8, !noalias !328
  %15 = getelementptr inbounds { { i64 }, i64, { { i32 } }, i32 }, ptr %6, i64 0, i32 3
  store i32 1, ptr %15, align 4, !noalias !328
  br label %24

16:                                               ; preds = %2
  %17 = getelementptr inbounds { { i64 }, i64, { { i32 } }, i32 }, ptr %6, i64 0, i32 3
  %18 = load i32, ptr %17, align 4, !noalias !328, !noundef !14
  %19 = tail call { i32, i1 } @llvm.uadd.with.overflow.i32(i32 %18, i32 1)
  %20 = extractvalue { i32, i1 } %19, 1
  br i1 %20, label %21, label %22

21:                                               ; preds = %16
  tail call void @_ZN4core6option13expect_failed17h10200cf5aaa1fc01E(ptr noalias noundef nonnull readonly align 1 @anon.7c5502a9deccded8a3ba90acf2a62090.60.llvm.11955502528429326793, i64 noundef 38, ptr noalias noundef nonnull readonly align 8 dereferenceable(24) @anon.7c5502a9deccded8a3ba90acf2a62090.62.llvm.11955502528429326793) #34, !noalias !328
  unreachable

22:                                               ; preds = %16
  %23 = extractvalue { i32, i1 } %19, 0
  store i32 %23, ptr %17, align 4, !noalias !328
  br label %24

24:                                               ; preds = %22, %14
  store ptr %6, ptr %4, align 8
  call void @llvm.lifetime.start.p0(i64 16, ptr nonnull %3), !noalias !331
  store ptr %4, ptr %3, align 8, !noalias !331
  %25 = getelementptr inbounds { ptr, ptr }, ptr %3, i64 0, i32 1
  store ptr null, ptr %25, align 8, !noalias !331
  %26 = invoke noundef zeroext i1 @_ZN4core3fmt5write17h93b330e7c1ab4f05E(ptr noundef nonnull align 1 %3, ptr noalias noundef nonnull readonly align 8 dereferenceable(24) @anon.7c5502a9deccded8a3ba90acf2a62090.47, ptr noalias nocapture noundef nonnull readonly align 8 dereferenceable(48) %1)
          to label %32 unwind label %27

27:                                               ; preds = %24
  %28 = landingpad { ptr, i32 }
          cleanup
  %29 = load ptr, ptr %25, align 8, !alias.scope !335, !noalias !331, !noundef !14
  %30 = icmp eq ptr %29, null
  br i1 %30, label %43, label %31

31:                                               ; preds = %27
  invoke fastcc void @"_ZN4core3ptr42drop_in_place$LT$std..io..error..Error$GT$17h99f3a84feb436a8eE.llvm.11955502528429326793"(ptr nonnull %29)
          to label %43 unwind label %39, !noalias !338

32:                                               ; preds = %24
  %33 = load ptr, ptr %25, align 8, !noalias !331
  %34 = icmp eq ptr %33, null
  br i1 %26, label %35, label %37

35:                                               ; preds = %32
  %36 = select i1 %34, ptr @anon.7c5502a9deccded8a3ba90acf2a62090.46, ptr %33
  br label %45

37:                                               ; preds = %32
  br i1 %34, label %45, label %38

38:                                               ; preds = %37
  invoke fastcc void @"_ZN4core3ptr42drop_in_place$LT$std..io..error..Error$GT$17h99f3a84feb436a8eE.llvm.11955502528429326793"(ptr nonnull %33)
          to label %45 unwind label %41

39:                                               ; preds = %31
  %40 = landingpad { ptr, i32 }
          filter [0 x ptr] zeroinitializer
  call void @_ZN4core9panicking16panic_in_cleanup17h0cc56309fdf70f59E() #11, !noalias !338
  unreachable

41:                                               ; preds = %38
  %42 = landingpad { ptr, i32 }
          cleanup
  br label %43

43:                                               ; preds = %41, %31, %27
  %44 = phi { ptr, i32 } [ %42, %41 ], [ %28, %31 ], [ %28, %27 ]
  call fastcc void @"_ZN4core3ptr47drop_in_place$LT$std..io..stdio..StderrLock$GT$17hb5ddb5cb80d7beb4E"(ptr noalias noundef nonnull align 8 dereferenceable(8) %4) #36
  resume { ptr, i32 } %44

45:                                               ; preds = %38, %37, %35
  %46 = phi ptr [ null, %37 ], [ %36, %35 ], [ null, %38 ]
  call void @llvm.lifetime.end.p0(i64 16, ptr nonnull %3), !noalias !331
  call void @llvm.experimental.noalias.scope.decl(metadata !339)
  call void @llvm.experimental.noalias.scope.decl(metadata !342)
  call void @llvm.experimental.noalias.scope.decl(metadata !345)
  %47 = load ptr, ptr %4, align 8, !alias.scope !348, !nonnull !14, !align !15, !noundef !14
  %48 = getelementptr inbounds { { i64 }, i64, { { i32 } }, i32 }, ptr %47, i64 0, i32 3
  %49 = load i32, ptr %48, align 4, !noalias !348, !noundef !14
  %50 = add i32 %49, -1
  store i32 %50, ptr %48, align 4, !noalias !348
  %51 = icmp eq i32 %50, 0
  br i1 %51, label %52, label %59

52:                                               ; preds = %45
  store atomic i64 0, ptr %47 monotonic, align 8, !noalias !348
  %53 = load ptr, ptr %4, align 8, !alias.scope !348, !nonnull !14, !align !15, !noundef !14
  %54 = getelementptr inbounds { { i64 }, i64, { { i32 } }, i32 }, ptr %53, i64 0, i32 2
  %55 = atomicrmw xchg ptr %54, i32 0 release, align 4, !noalias !348
  %56 = icmp eq i32 %55, 2
  br i1 %56, label %57, label %59

57:                                               ; preds = %52
  %58 = call noundef i64 (i64, ...) @syscall(i64 noundef 202, ptr noundef nonnull %54, i32 noundef 129, i32 noundef 1) #21, !noalias !348
  br label %59

59:                                               ; preds = %57, %52, %45
  call void @llvm.lifetime.end.p0(i64 8, ptr nonnull %4)
  ret ptr %46
}

; Function Attrs: nonlazybind sanitize_hwaddress uwtable
define hidden noundef ptr @_ZN3std2io5stdio18set_output_capture17h58c2e821599f8aacE(ptr noundef %0) unnamed_addr #12 personality ptr @rust_eh_personality {
  %2 = alloca {}, align 1
  %3 = alloca ptr, align 8
  %4 = icmp eq ptr %0, null
  br i1 %4, label %5, label %10

5:                                                ; preds = %1
  %6 = load atomic i8, ptr @_ZN3std2io5stdio19OUTPUT_CAPTURE_USED17hf6865506bcf5389dE.0.llvm.11955502528429326793 monotonic, align 1
  %7 = icmp eq i8 %6, 0
  br i1 %7, label %8, label %10

8:                                                ; preds = %35, %5
  %9 = phi ptr [ %38, %35 ], [ null, %5 ]
  ret ptr %9

10:                                               ; preds = %5, %1
  store atomic i8 1, ptr @_ZN3std2io5stdio19OUTPUT_CAPTURE_USED17hf6865506bcf5389dE.0.llvm.11955502528429326793 monotonic, align 1
  call void @llvm.lifetime.start.p0(i64 8, ptr nonnull %3)
  store ptr %0, ptr %3, align 8
  %11 = load i64, ptr @_ZN3std2io5stdio14OUTPUT_CAPTURE7__getit5__KEY17h15828b3e0884a413E.llvm.11955502528429326793, align 8, !range !86, !noalias !349, !noundef !14
  %12 = icmp eq i64 %11, 0
  br i1 %12, label %13, label %35

13:                                               ; preds = %10
  %14 = invoke fastcc noundef align 8 ptr @"_ZN3std3sys6common12thread_local10fast_local12Key$LT$T$GT$14try_initialize17h95ea045acf24ef64E.llvm.11018740537405607228"(ptr noundef nonnull align 8 @_ZN3std2io5stdio14OUTPUT_CAPTURE7__getit5__KEY17h15828b3e0884a413E.llvm.11955502528429326793, ptr noalias noundef align 8 dereferenceable_or_null(16) null)
          to label %15 unwind label %24

15:                                               ; preds = %13
  %16 = icmp eq ptr %14, null
  br i1 %16, label %17, label %35

17:                                               ; preds = %15
  tail call void @llvm.experimental.noalias.scope.decl(metadata !352)
  tail call void @llvm.experimental.noalias.scope.decl(metadata !355)
  %18 = load ptr, ptr %3, align 8, !alias.scope !358, !noundef !14
  %19 = icmp eq ptr %18, null
  br i1 %19, label %34, label %20

20:                                               ; preds = %17
  %21 = atomicrmw sub ptr %18, i64 1 release, align 8, !noalias !359
  %22 = icmp eq i64 %21, 1
  br i1 %22, label %23, label %34

23:                                               ; preds = %20
  fence acquire
  call void @"_ZN5alloc4sync16Arc$LT$T$C$A$GT$9drop_slow17h2cd82fc8a4685c3eE"(ptr noalias noundef nonnull align 8 dereferenceable(8) %3)
  br label %34

24:                                               ; preds = %13
  %25 = landingpad { ptr, i32 }
          cleanup
  tail call void @llvm.experimental.noalias.scope.decl(metadata !364)
  tail call void @llvm.experimental.noalias.scope.decl(metadata !367)
  %26 = load ptr, ptr %3, align 8, !alias.scope !370, !noundef !14
  %27 = icmp eq ptr %26, null
  br i1 %27, label %39, label %28

28:                                               ; preds = %24
  %29 = atomicrmw sub ptr %26, i64 1 release, align 8, !noalias !371
  %30 = icmp eq i64 %29, 1
  br i1 %30, label %31, label %39

31:                                               ; preds = %28
  fence acquire
  invoke void @"_ZN5alloc4sync16Arc$LT$T$C$A$GT$9drop_slow17h2cd82fc8a4685c3eE"(ptr noalias noundef nonnull align 8 dereferenceable(8) %3)
          to label %39 unwind label %32

32:                                               ; preds = %31
  %33 = landingpad { ptr, i32 }
          filter [0 x ptr] zeroinitializer
  call void @_ZN4core9panicking16panic_in_cleanup17h0cc56309fdf70f59E() #11
  unreachable

34:                                               ; preds = %23, %20, %17
  call void @llvm.lifetime.end.p0(i64 8, ptr nonnull %3)
  call void @llvm.lifetime.start.p0(i64 0, ptr nonnull %2)
  call void @_ZN4core6result13unwrap_failed17h792f0fca794950e8E(ptr noalias noundef nonnull readonly align 1 @anon.7c5502a9deccded8a3ba90acf2a62090.35.llvm.11955502528429326793, i64 noundef 70, ptr noundef nonnull align 1 %2, ptr noalias noundef nonnull readonly align 8 dereferenceable(24) @anon.7c5502a9deccded8a3ba90acf2a62090.1.llvm.11955502528429326793, ptr noalias noundef nonnull readonly align 8 dereferenceable(24) @anon.7c5502a9deccded8a3ba90acf2a62090.37.llvm.11955502528429326793) #34
  unreachable

35:                                               ; preds = %15, %10
  %36 = phi ptr [ %14, %15 ], [ getelementptr inbounds (<{ [8 x i8], [8 x i8], [1 x i8], [7 x i8] }>, ptr @_ZN3std2io5stdio14OUTPUT_CAPTURE7__getit5__KEY17h15828b3e0884a413E.llvm.11955502528429326793, i64 0, i32 1, i64 0), %10 ]
  %37 = load ptr, ptr %3, align 8, !noundef !14
  %38 = load ptr, ptr %36, align 8, !noundef !14
  store ptr %37, ptr %36, align 8
  call void @llvm.lifetime.end.p0(i64 8, ptr nonnull %3)
  call void @llvm.lifetime.start.p0(i64 0, ptr nonnull %2)
  call void @llvm.lifetime.end.p0(i64 0, ptr nonnull %2)
  br label %8

39:                                               ; preds = %31, %28, %24
  resume { ptr, i32 } %25
}

; Function Attrs: nonlazybind sanitize_hwaddress uwtable
define hidden fastcc noundef zeroext i1 @_ZN3std2io5stdio31print_to_buffer_if_capture_used17hf768171844a00e61E(ptr noalias nocapture noundef readonly align 8 dereferenceable(48) %0) unnamed_addr #12 personality ptr @rust_eh_personality {
  %2 = alloca { ptr, ptr }, align 8
  %3 = alloca ptr, align 8
  %4 = alloca ptr, align 8
  %5 = load atomic i8, ptr @_ZN3std2io5stdio19OUTPUT_CAPTURE_USED17hf6865506bcf5389dE.0.llvm.11955502528429326793 monotonic, align 1
  %6 = icmp eq i8 %5, 0
  br i1 %6, label %103, label %7

7:                                                ; preds = %1
  %8 = load i64, ptr @_ZN3std2io5stdio14OUTPUT_CAPTURE7__getit5__KEY17h15828b3e0884a413E.llvm.11955502528429326793, align 8, !range !86, !noalias !376, !noundef !14
  %9 = icmp eq i64 %8, 0
  br i1 %9, label %10, label %13

10:                                               ; preds = %7
  %11 = tail call fastcc noundef align 8 ptr @"_ZN3std3sys6common12thread_local10fast_local12Key$LT$T$GT$14try_initialize17h95ea045acf24ef64E.llvm.11018740537405607228"(ptr noundef nonnull align 8 @_ZN3std2io5stdio14OUTPUT_CAPTURE7__getit5__KEY17h15828b3e0884a413E.llvm.11955502528429326793, ptr noalias noundef align 8 dereferenceable_or_null(16) null), !noalias !381
  %12 = icmp eq ptr %11, null
  br i1 %12, label %103, label %13

13:                                               ; preds = %10, %7
  %14 = phi ptr [ %11, %10 ], [ getelementptr inbounds (<{ [8 x i8], [8 x i8], [1 x i8], [7 x i8] }>, ptr @_ZN3std2io5stdio14OUTPUT_CAPTURE7__getit5__KEY17h15828b3e0884a413E.llvm.11955502528429326793, i64 0, i32 1, i64 0), %7 ]
  %15 = load ptr, ptr %14, align 8, !noalias !382, !noundef !14
  store ptr null, ptr %14, align 8, !noalias !382
  %16 = icmp eq ptr %15, null
  br i1 %16, label %103, label %17

17:                                               ; preds = %13
  call void @llvm.lifetime.start.p0(i64 8, ptr nonnull %4), !noalias !382
  store ptr %15, ptr %4, align 8, !noalias !385
  %18 = getelementptr inbounds { { i64 }, { i64 }, { { { i32 } }, { { i8 } }, [3 x i8], { { { i64, ptr }, i64 } } } }, ptr %15, i64 0, i32 2
  %19 = cmpxchg ptr %18, i32 0, i32 1 acquire monotonic, align 4, !noalias !385
  %20 = extractvalue { i32, i1 } %19, 1
  br i1 %20, label %24, label %21

21:                                               ; preds = %17
  invoke void @_ZN3std3sys4unix5locks11futex_mutex5Mutex14lock_contended17hd04b1a3ad9b934f4E(ptr noundef nonnull align 4 %18)
          to label %24 unwind label %22, !noalias !385

22:                                               ; preds = %21
  %23 = landingpad { ptr, i32 }
          cleanup
  br label %96

24:                                               ; preds = %21, %17
  %25 = load atomic i64, ptr @_ZN3std9panicking11panic_count18GLOBAL_PANIC_COUNT17hbd0a618f0d2566aaE monotonic, align 8, !noalias !388
  %26 = and i64 %25, 9223372036854775807
  %27 = icmp eq i64 %26, 0
  br i1 %27, label %32, label %28

28:                                               ; preds = %24
  %29 = tail call noundef zeroext i1 @_ZN3std9panicking11panic_count17is_zero_slow_path17hb0fb1c6a103a0962E(), !noalias !388
  %30 = xor i1 %29, true
  %31 = zext i1 %30 to i8
  br label %32

32:                                               ; preds = %28, %24
  %33 = phi i8 [ %31, %28 ], [ 0, %24 ]
  %34 = getelementptr inbounds { { i64 }, { i64 }, { { { i32 } }, { { i8 } }, [3 x i8], { { { i64, ptr }, i64 } } } }, ptr %15, i64 0, i32 2, i32 1
  %35 = load atomic i8, ptr %34 monotonic, align 4, !noalias !388
  %36 = getelementptr inbounds { { i64 }, { i64 }, { { { i32 } }, { { i8 } }, [3 x i8], { { { i64, ptr }, i64 } } } }, ptr %15, i64 0, i32 2, i32 3
  call void @llvm.lifetime.start.p0(i64 16, ptr nonnull %2), !noalias !391
  store ptr %36, ptr %2, align 8, !noalias !391
  %37 = getelementptr inbounds { ptr, ptr }, ptr %2, i64 0, i32 1
  store ptr null, ptr %37, align 8, !noalias !391
  %38 = invoke noundef zeroext i1 @_ZN4core3fmt5write17h93b330e7c1ab4f05E(ptr noundef nonnull align 1 %2, ptr noalias noundef nonnull readonly align 8 dereferenceable(24) @anon.0cbb6f93f2f44bcc75bcce58e553de37.54.llvm.9950552589247086825, ptr noalias nocapture noundef nonnull readonly align 8 dereferenceable(48) %0)
          to label %44 unwind label %39, !noalias !385

39:                                               ; preds = %32
  %40 = landingpad { ptr, i32 }
          cleanup
  %41 = load ptr, ptr %37, align 8, !alias.scope !395, !noalias !391, !noundef !14
  %42 = icmp eq ptr %41, null
  br i1 %42, label %55, label %43

43:                                               ; preds = %39
  invoke fastcc void @"_ZN4core3ptr42drop_in_place$LT$std..io..error..Error$GT$17h99f3a84feb436a8eE.llvm.9950552589247086825"(ptr nonnull %41)
          to label %55 unwind label %51, !noalias !398

44:                                               ; preds = %32
  %45 = load ptr, ptr %37, align 8, !noalias !391
  %46 = icmp eq ptr %45, null
  br i1 %38, label %47, label %49

47:                                               ; preds = %44
  %48 = select i1 %46, ptr @anon.0cbb6f93f2f44bcc75bcce58e553de37.56.llvm.9950552589247086825, ptr %45
  call void @llvm.lifetime.end.p0(i64 16, ptr nonnull %2), !noalias !391
  invoke fastcc void @"_ZN4core3ptr42drop_in_place$LT$std..io..error..Error$GT$17h99f3a84feb436a8eE.llvm.11955502528429326793"(ptr nonnull %48)
          to label %71 unwind label %53, !noalias !385

49:                                               ; preds = %44
  br i1 %46, label %70, label %50

50:                                               ; preds = %49
  invoke fastcc void @"_ZN4core3ptr42drop_in_place$LT$std..io..error..Error$GT$17h99f3a84feb436a8eE.llvm.9950552589247086825"(ptr nonnull %45)
          to label %70 unwind label %53

51:                                               ; preds = %43
  %52 = landingpad { ptr, i32 }
          filter [0 x ptr] zeroinitializer
  call void @_ZN4core9panicking16panic_in_cleanup17h0cc56309fdf70f59E() #11, !noalias !398
  unreachable

53:                                               ; preds = %50, %47
  %54 = landingpad { ptr, i32 }
          cleanup
  br label %55

55:                                               ; preds = %53, %43, %39
  %56 = phi { ptr, i32 } [ %54, %53 ], [ %40, %43 ], [ %40, %39 ]
  %57 = icmp eq i8 %33, 0
  br i1 %57, label %58, label %65

58:                                               ; preds = %55
  %59 = load atomic i64, ptr @_ZN3std9panicking11panic_count18GLOBAL_PANIC_COUNT17hbd0a618f0d2566aaE monotonic, align 8, !noalias !399
  %60 = and i64 %59, 9223372036854775807
  %61 = icmp eq i64 %60, 0
  br i1 %61, label %65, label %62

62:                                               ; preds = %58
  %63 = tail call noundef zeroext i1 @_ZN3std9panicking11panic_count17is_zero_slow_path17hb0fb1c6a103a0962E(), !noalias !399
  br i1 %63, label %65, label %64

64:                                               ; preds = %62
  store atomic i8 1, ptr %34 monotonic, align 4, !noalias !399
  br label %65

65:                                               ; preds = %64, %62, %58, %55
  %66 = atomicrmw xchg ptr %18, i32 0 release, align 4, !noalias !399
  %67 = icmp eq i32 %66, 2
  br i1 %67, label %68, label %96

68:                                               ; preds = %65
  %69 = call noundef i64 (i64, ...) @syscall(i64 noundef 202, ptr noundef nonnull %18, i32 noundef 129, i32 noundef 1) #21, !noalias !382
  br label %96

70:                                               ; preds = %50, %49
  call void @llvm.lifetime.end.p0(i64 16, ptr nonnull %2), !noalias !391
  br label %71

71:                                               ; preds = %70, %47
  %72 = icmp eq i8 %33, 0
  br i1 %72, label %73, label %80

73:                                               ; preds = %71
  %74 = load atomic i64, ptr @_ZN3std9panicking11panic_count18GLOBAL_PANIC_COUNT17hbd0a618f0d2566aaE monotonic, align 8, !noalias !404
  %75 = and i64 %74, 9223372036854775807
  %76 = icmp eq i64 %75, 0
  br i1 %76, label %80, label %77

77:                                               ; preds = %73
  %78 = tail call noundef zeroext i1 @_ZN3std9panicking11panic_count17is_zero_slow_path17hb0fb1c6a103a0962E(), !noalias !404
  br i1 %78, label %80, label %79

79:                                               ; preds = %77
  store atomic i8 1, ptr %34 monotonic, align 4, !noalias !404
  br label %80

80:                                               ; preds = %79, %77, %73, %71
  %81 = atomicrmw xchg ptr %18, i32 0 release, align 4, !noalias !404
  %82 = icmp eq i32 %81, 2
  br i1 %82, label %83, label %85

83:                                               ; preds = %80
  %84 = call noundef i64 (i64, ...) @syscall(i64 noundef 202, ptr noundef nonnull %18, i32 noundef 129, i32 noundef 1) #21, !noalias !385
  br label %85

85:                                               ; preds = %83, %80
  %86 = load ptr, ptr %4, align 8, !noalias !385, !nonnull !14, !noundef !14
  call void @llvm.lifetime.start.p0(i64 8, ptr nonnull %3), !noalias !385
  %87 = load ptr, ptr %14, align 8, !noalias !385, !noundef !14
  store ptr %87, ptr %3, align 8, !noalias !385
  store ptr %86, ptr %14, align 8, !noalias !385
  %88 = icmp eq ptr %87, null
  br i1 %88, label %102, label %89

89:                                               ; preds = %85
  %90 = atomicrmw sub ptr %87, i64 1 release, align 8, !noalias !409
  %91 = icmp eq i64 %90, 1
  br i1 %91, label %92, label %102

92:                                               ; preds = %89
  fence acquire
  call void @"_ZN5alloc4sync16Arc$LT$T$C$A$GT$9drop_slow17h2cd82fc8a4685c3eE"(ptr noalias noundef nonnull align 8 dereferenceable(8) %3), !noalias !385
  br label %102

93:                                               ; preds = %101
  %94 = landingpad { ptr, i32 }
          filter [0 x ptr] zeroinitializer
  call void @_ZN4core9panicking16panic_in_cleanup17h0cc56309fdf70f59E() #11, !noalias !385
  unreachable

95:                                               ; preds = %101, %96
  resume { ptr, i32 } %97

96:                                               ; preds = %68, %65, %22
  %97 = phi { ptr, i32 } [ %23, %22 ], [ %56, %68 ], [ %56, %65 ]
  tail call void @llvm.experimental.noalias.scope.decl(metadata !416)
  tail call void @llvm.experimental.noalias.scope.decl(metadata !419)
  %98 = load ptr, ptr %4, align 8, !alias.scope !422, !noalias !385, !nonnull !14, !noundef !14
  %99 = atomicrmw sub ptr %98, i64 1 release, align 8, !noalias !423
  %100 = icmp eq i64 %99, 1
  br i1 %100, label %101, label %95

101:                                              ; preds = %96
  fence acquire
  invoke void @"_ZN5alloc4sync16Arc$LT$T$C$A$GT$9drop_slow17h2cd82fc8a4685c3eE"(ptr noalias noundef nonnull align 8 dereferenceable(8) %4)
          to label %95 unwind label %93, !noalias !385

102:                                              ; preds = %92, %89, %85
  call void @llvm.lifetime.end.p0(i64 8, ptr nonnull %3), !noalias !385
  call void @llvm.lifetime.end.p0(i64 8, ptr nonnull %4), !noalias !382
  br label %103

103:                                              ; preds = %102, %13, %10, %1
  %104 = phi i1 [ false, %1 ], [ false, %10 ], [ true, %102 ], [ false, %13 ]
  ret i1 %104
}

; Function Attrs: nonlazybind sanitize_hwaddress uwtable
define hidden void @_ZN3std2io5stdio7_eprint17h1ff923295f510774E(ptr noalias nocapture noundef readonly align 8 dereferenceable(48) %0) unnamed_addr #12 personality ptr @rust_eh_personality {
  %2 = alloca ptr, align 8
  %3 = alloca [2 x { ptr, ptr }], align 8
  %4 = alloca { { ptr, i64 }, { ptr, i64 }, { ptr, i64 } }, align 8
  %5 = alloca ptr, align 8
  %6 = alloca ptr, align 8
  %7 = alloca { ptr, i64 }, align 8
  call void @llvm.lifetime.start.p0(i64 16, ptr nonnull %7)
  store ptr @anon.7c5502a9deccded8a3ba90acf2a62090.43, ptr %7, align 8, !noalias !424
  %8 = getelementptr inbounds { ptr, i64 }, ptr %7, i64 0, i32 1
  store i64 6, ptr %8, align 8, !noalias !424
  %9 = tail call fastcc noundef zeroext i1 @_ZN3std2io5stdio31print_to_buffer_if_capture_used17hf768171844a00e61E(ptr noalias nocapture noundef nonnull readonly align 8 dereferenceable(48) %0)
  br i1 %9, label %29, label %10

10:                                               ; preds = %1
  call void @llvm.lifetime.start.p0(i64 8, ptr nonnull %6), !noalias !424
  store ptr @_ZN3std2io5stdio6stderr8INSTANCE17h02fd0c7cc699e5f6E, ptr %6, align 8, !noalias !424
  call void @llvm.lifetime.start.p0(i64 8, ptr nonnull %2), !noalias !427
  store ptr %6, ptr %2, align 8, !noalias !427
  %11 = call noundef ptr @"_ZN61_$LT$$RF$std..io..stdio..Stderr$u20$as$u20$std..io..Write$GT$9write_fmt17hbc3726f6c8c2b0e8E"(ptr noalias noundef nonnull align 8 dereferenceable(8) %2, ptr noalias nocapture noundef nonnull align 8 dereferenceable(48) %0)
  call void @llvm.lifetime.end.p0(i64 8, ptr nonnull %2), !noalias !427
  %12 = icmp eq ptr %11, null
  br i1 %12, label %14, label %18

13:                                               ; preds = %15
  resume { ptr, i32 } %16

14:                                               ; preds = %10
  call void @llvm.lifetime.end.p0(i64 8, ptr nonnull %6), !noalias !424
  br label %29

15:                                               ; preds = %18
  %16 = landingpad { ptr, i32 }
          cleanup
  %17 = load ptr, ptr %5, align 8, !noalias !424, !nonnull !14, !noundef !14
  invoke fastcc void @"_ZN4core3ptr42drop_in_place$LT$std..io..error..Error$GT$17h99f3a84feb436a8eE.llvm.11955502528429326793"(ptr nonnull %17) #36
          to label %13 unwind label %27, !noalias !424

18:                                               ; preds = %10
  call void @llvm.lifetime.start.p0(i64 8, ptr nonnull %5), !noalias !424
  store ptr %11, ptr %5, align 8, !noalias !424
  call void @llvm.lifetime.start.p0(i64 48, ptr nonnull %4), !noalias !424
  call void @llvm.lifetime.start.p0(i64 32, ptr nonnull %3), !noalias !424
  store ptr %7, ptr %3, align 8, !noalias !424
  %19 = getelementptr inbounds { ptr, ptr }, ptr %3, i64 0, i32 1
  store ptr @"_ZN44_$LT$$RF$T$u20$as$u20$core..fmt..Display$GT$3fmt17hccaff9d104b97a25E", ptr %19, align 8, !noalias !424
  %20 = getelementptr inbounds [2 x { ptr, ptr }], ptr %3, i64 0, i64 1
  store ptr %5, ptr %20, align 8, !noalias !424
  %21 = getelementptr inbounds [2 x { ptr, ptr }], ptr %3, i64 0, i64 1, i32 1
  store ptr @"_ZN60_$LT$std..io..error..Error$u20$as$u20$core..fmt..Display$GT$3fmt17he6dd421bb2ad9edaE", ptr %21, align 8, !noalias !424
  store ptr @anon.7c5502a9deccded8a3ba90acf2a62090.40, ptr %4, align 8, !alias.scope !431, !noalias !434
  %22 = getelementptr inbounds { ptr, i64 }, ptr %4, i64 0, i32 1
  store i64 2, ptr %22, align 8, !alias.scope !431, !noalias !434
  %23 = getelementptr inbounds { { ptr, i64 }, { ptr, i64 }, { ptr, i64 } }, ptr %4, i64 0, i32 2
  store ptr null, ptr %23, align 8, !alias.scope !431, !noalias !434
  %24 = getelementptr inbounds { { ptr, i64 }, { ptr, i64 }, { ptr, i64 } }, ptr %4, i64 0, i32 1
  store ptr %3, ptr %24, align 8, !alias.scope !431, !noalias !434
  %25 = getelementptr inbounds { { ptr, i64 }, { ptr, i64 }, { ptr, i64 } }, ptr %4, i64 0, i32 1, i32 1
  store i64 2, ptr %25, align 8, !alias.scope !431, !noalias !434
  invoke void @_ZN4core9panicking9panic_fmt17h9b61d05f69f05277E(ptr noalias nocapture noundef nonnull readonly align 8 dereferenceable(48) %4, ptr noalias noundef nonnull readonly align 8 dereferenceable(24) @anon.7c5502a9deccded8a3ba90acf2a62090.41) #34
          to label %26 unwind label %15, !noalias !424

26:                                               ; preds = %18
  unreachable

27:                                               ; preds = %15
  %28 = landingpad { ptr, i32 }
          filter [0 x ptr] zeroinitializer
  call void @_ZN4core9panicking16panic_in_cleanup17h0cc56309fdf70f59E() #11, !noalias !424
  unreachable

29:                                               ; preds = %14, %1
  call void @llvm.lifetime.end.p0(i64 16, ptr nonnull %7)
  ret void
}

; Function Attrs: nonlazybind sanitize_hwaddress uwtable
define hidden noundef i8 @_ZN3std5panic19get_backtrace_style17h2726a0a3439d95d2E() unnamed_addr #12 personality ptr @rust_eh_personality {
  %1 = alloca { i64, [2 x i64] }, align 8
  %2 = alloca { [384 x i8] }, align 1
  %3 = alloca { i64, [2 x i64] }, align 8
  %4 = load atomic i64, ptr @_ZN3std5panic14SHOULD_CAPTURE17h6d3bf617aeacc1a7E.0.llvm.11955502528429326793 acquire, align 8
  switch i64 %4, label %5 [
    i64 0, label %8
    i64 1, label %28
    i64 2, label %6
    i64 3, label %7
  ]

5:                                                ; preds = %0
  tail call void @_ZN4core9panicking5panic17h270d4600dc7bb3f1E(ptr noalias noundef nonnull readonly align 1 @anon.7c5502a9deccded8a3ba90acf2a62090.16.llvm.11955502528429326793, i64 noundef 40, ptr noalias noundef nonnull readonly align 8 dereferenceable(24) @anon.7c5502a9deccded8a3ba90acf2a62090.55.llvm.11955502528429326793) #34
  unreachable

6:                                                ; preds = %0
  br label %28

7:                                                ; preds = %0
  br label %28

8:                                                ; preds = %0
  call void @llvm.lifetime.start.p0(i64 24, ptr nonnull %3), !noalias !437
  tail call void @llvm.experimental.noalias.scope.decl(metadata !444)
  call void @llvm.lifetime.start.p0(i64 384, ptr nonnull %2), !noalias !447
  call void @llvm.memcpy.p0.p0.i64(ptr noundef nonnull align 1 dereferenceable(14) %2, ptr noundef nonnull align 1 dereferenceable(14) @anon.7c5502a9deccded8a3ba90acf2a62090.56.llvm.11955502528429326793, i64 14, i1 false), !noalias !449
  %9 = getelementptr inbounds i8, ptr %2, i64 14
  store i8 0, ptr %9, align 1, !noalias !447
  call void @llvm.lifetime.start.p0(i64 24, ptr nonnull %1), !noalias !447
  call void @_ZN4core3ffi5c_str4CStr19from_bytes_with_nul17he6162651285afb81E(ptr noalias nocapture noundef nonnull sret({ i64, [2 x i64] }) align 8 dereferenceable(24) %1, ptr noalias noundef nonnull readonly align 1 %2, i64 noundef 15), !noalias !447
  %10 = load i64, ptr %1, align 8, !range !86, !noalias !447, !noundef !14
  %11 = icmp eq i64 %10, 0
  br i1 %11, label %14, label %12

12:                                               ; preds = %8
  %13 = getelementptr inbounds { [1 x i64], ptr }, ptr %3, i64 0, i32 1
  store ptr @anon.49f5641cf34e9cf781d07370d03020be.31.llvm.3100245818866642629, ptr %13, align 8, !alias.scope !444, !noalias !450
  call void @llvm.lifetime.end.p0(i64 384, ptr nonnull %2), !noalias !447
  call void @llvm.lifetime.end.p0(i64 24, ptr nonnull %1), !noalias !447
  br label %19

14:                                               ; preds = %8
  %15 = getelementptr inbounds { [1 x i64], { ptr, i64 } }, ptr %1, i64 0, i32 1
  %16 = load ptr, ptr %15, align 8, !noalias !447, !nonnull !14, !align !16, !noundef !14
  call fastcc void @"_ZN3std3sys4unix2os6getenv28_$u7b$$u7b$closure$u7d$$u7d$17h34940eb7c7f03a10E.llvm.3100245818866642629"(ptr noalias nocapture noundef nonnull align 8 dereferenceable(24) %3, ptr noalias noundef nonnull readonly align 1 %16), !noalias !437
  %17 = load i64, ptr %3, align 8, !noalias !437
  call void @llvm.lifetime.end.p0(i64 384, ptr nonnull %2), !noalias !447
  call void @llvm.lifetime.end.p0(i64 24, ptr nonnull %1), !noalias !447
  %18 = icmp eq i64 %17, -9223372036854775807
  br i1 %18, label %19, label %22

19:                                               ; preds = %14, %12
  call void @llvm.experimental.noalias.scope.decl(metadata !451)
  %20 = getelementptr inbounds { [1 x i64], ptr }, ptr %3, i64 0, i32 1
  %21 = load ptr, ptr %20, align 8, !alias.scope !451, !noalias !437, !nonnull !14, !noundef !14
  call fastcc void @"_ZN4core3ptr42drop_in_place$LT$std..io..error..Error$GT$17h99f3a84feb436a8eE.llvm.3100245818866642629"(ptr nonnull %21), !noalias !454
  call void @llvm.lifetime.end.p0(i64 24, ptr nonnull %3), !noalias !437
  br label %48

22:                                               ; preds = %14
  %23 = getelementptr inbounds i8, ptr %3, i64 8
  %24 = load ptr, ptr %23, align 8, !noalias !455
  %25 = getelementptr inbounds i8, ptr %3, i64 16
  %26 = load i64, ptr %25, align 8, !noalias !455
  call void @llvm.lifetime.end.p0(i64 24, ptr nonnull %3), !noalias !437
  %27 = icmp eq i64 %17, -9223372036854775808
  br i1 %27, label %48, label %30

28:                                               ; preds = %48, %7, %6, %0
  %29 = phi i8 [ %49, %48 ], [ 2, %7 ], [ 1, %6 ], [ 0, %0 ]
  ret i8 %29

30:                                               ; preds = %22
  %31 = icmp ne ptr %24, null
  call void @llvm.assume(i1 %31)
  switch i64 %26, label %39 [
    i64 1, label %32
    i64 4, label %35
  ]

32:                                               ; preds = %30
  %33 = load i8, ptr %24, align 1
  %34 = icmp eq i8 %33, 48
  br i1 %34, label %41, label %39

35:                                               ; preds = %30
  %36 = call i32 @bcmp(ptr noundef nonnull dereferenceable(4) %24, ptr noundef nonnull dereferenceable(4) @anon.7c5502a9deccded8a3ba90acf2a62090.58.llvm.11955502528429326793, i64 4), !alias.scope !456, !noalias !460
  %37 = icmp eq i32 %36, 0
  %38 = zext i1 %37 to i8
  br label %39

39:                                               ; preds = %35, %32, %30
  %40 = phi i8 [ %38, %35 ], [ 0, %32 ], [ 0, %30 ]
  br label %41

41:                                               ; preds = %39, %32
  %42 = phi i8 [ 2, %32 ], [ %40, %39 ]
  %43 = icmp eq i64 %17, 0
  br i1 %43, label %45, label %44

44:                                               ; preds = %41
  call void @__rust_dealloc(ptr noundef nonnull %24, i64 noundef %17, i64 noundef 1) #21, !noalias !463
  br label %45

45:                                               ; preds = %44, %41
  %46 = zext i8 %42 to i64
  %47 = add nuw nsw i64 %46, 1
  br label %48

48:                                               ; preds = %45, %22, %19
  %49 = phi i8 [ %42, %45 ], [ 2, %22 ], [ 2, %19 ]
  %50 = phi i64 [ %47, %45 ], [ 3, %22 ], [ 3, %19 ]
  store atomic i64 %50, ptr @_ZN3std5panic14SHOULD_CAPTURE17h6d3bf617aeacc1a7E.0.llvm.11955502528429326793 release, align 8
  br label %28
}

; Function Attrs: nonlazybind sanitize_hwaddress uwtable
define hidden noundef ptr @_ZN3std10sys_common9backtrace5print17h8e52153d3a6a5289E(ptr noundef nonnull align 1 %0, ptr noalias nocapture noundef readonly align 8 dereferenceable(24) %1, i8 noundef %2) unnamed_addr #12 personality ptr @rust_eh_personality {
  %4 = alloca i8, align 1
  %5 = alloca [1 x { ptr, ptr }], align 8
  %6 = alloca { { ptr, i64 }, { ptr, i64 }, { ptr, i64 } }, align 8
  %7 = alloca { ptr, i8 }, align 8
  call void @llvm.lifetime.start.p0(i64 16, ptr nonnull %7)
  %8 = cmpxchg ptr @_ZN3std10sys_common9backtrace4lock4LOCK17h25851852f49cd150E.llvm.11955502528429326793, i32 0, i32 1 acquire monotonic, align 4
  %9 = extractvalue { i32, i1 } %8, 1
  br i1 %9, label %11, label %10

10:                                               ; preds = %3
  tail call void @_ZN3std3sys4unix5locks11futex_mutex5Mutex14lock_contended17hd04b1a3ad9b934f4E(ptr noundef nonnull align 4 @_ZN3std10sys_common9backtrace4lock4LOCK17h25851852f49cd150E.llvm.11955502528429326793)
  br label %11

11:                                               ; preds = %10, %3
  %12 = load atomic i64, ptr @_ZN3std9panicking11panic_count18GLOBAL_PANIC_COUNT17hbd0a618f0d2566aaE monotonic, align 8, !noalias !466
  %13 = and i64 %12, 9223372036854775807
  %14 = icmp eq i64 %13, 0
  br i1 %14, label %19, label %15

15:                                               ; preds = %11
  %16 = tail call noundef zeroext i1 @_ZN3std9panicking11panic_count17is_zero_slow_path17hb0fb1c6a103a0962E(), !noalias !466
  %17 = xor i1 %16, true
  %18 = zext i1 %17 to i8
  br label %19

19:                                               ; preds = %15, %11
  %20 = phi i8 [ %18, %15 ], [ 0, %11 ]
  %21 = load atomic i8, ptr getelementptr inbounds (<{ [5 x i8], [3 x i8] }>, ptr @_ZN3std10sys_common9backtrace4lock4LOCK17h25851852f49cd150E.llvm.11955502528429326793, i64 0, i32 0, i64 4) monotonic, align 4, !noalias !466
  store ptr @_ZN3std10sys_common9backtrace4lock4LOCK17h25851852f49cd150E.llvm.11955502528429326793, ptr %7, align 8
  %22 = getelementptr inbounds { ptr, i8 }, ptr %7, i64 0, i32 1
  store i8 %20, ptr %22, align 8
  %23 = getelementptr i8, ptr %1, i64 72
  %24 = load ptr, ptr %23, align 8
  call void @llvm.lifetime.start.p0(i64 48, ptr nonnull %6)
  call void @llvm.lifetime.start.p0(i64 16, ptr nonnull %5)
  call void @llvm.lifetime.start.p0(i64 1, ptr nonnull %4)
  store i8 %2, ptr %4, align 1
  store ptr %4, ptr %5, align 8
  %25 = getelementptr inbounds { ptr, ptr }, ptr %5, i64 0, i32 1
  store ptr @"_ZN91_$LT$std..sys_common..backtrace.._print..DisplayBacktrace$u20$as$u20$core..fmt..Display$GT$3fmt17h384fb4c2f89cf998E", ptr %25, align 8
  store ptr @anon.7c5502a9deccded8a3ba90acf2a62090.63.llvm.11955502528429326793, ptr %6, align 8, !alias.scope !469, !noalias !472
  %26 = getelementptr inbounds { ptr, i64 }, ptr %6, i64 0, i32 1
  store i64 1, ptr %26, align 8, !alias.scope !469, !noalias !472
  %27 = getelementptr inbounds { { ptr, i64 }, { ptr, i64 }, { ptr, i64 } }, ptr %6, i64 0, i32 2
  store ptr null, ptr %27, align 8, !alias.scope !469, !noalias !472
  %28 = getelementptr inbounds { { ptr, i64 }, { ptr, i64 }, { ptr, i64 } }, ptr %6, i64 0, i32 1
  store ptr %5, ptr %28, align 8, !alias.scope !469, !noalias !472
  %29 = getelementptr inbounds { { ptr, i64 }, { ptr, i64 }, { ptr, i64 } }, ptr %6, i64 0, i32 1, i32 1
  store i64 1, ptr %29, align 8, !alias.scope !469, !noalias !472
  %30 = invoke noundef ptr %24(ptr noundef nonnull align 1 %0, ptr noalias nocapture noundef nonnull align 8 dereferenceable(48) %6)
          to label %33 unwind label %31

31:                                               ; preds = %19
  %32 = landingpad { ptr, i32 }
          cleanup
  call fastcc void @"_ZN4core3ptr65drop_in_place$LT$std..sync..mutex..MutexGuard$LT$$LP$$RP$$GT$$GT$17h81bac4ea27c9ba8bE.llvm.11955502528429326793"(ptr noalias noundef nonnull align 8 dereferenceable(16) %7) #36
  resume { ptr, i32 } %32

33:                                               ; preds = %19
  call void @llvm.lifetime.end.p0(i64 48, ptr nonnull %6)
  call void @llvm.lifetime.end.p0(i64 1, ptr nonnull %4)
  call void @llvm.lifetime.end.p0(i64 16, ptr nonnull %5)
  call void @llvm.experimental.noalias.scope.decl(metadata !475)
  call void @llvm.experimental.noalias.scope.decl(metadata !478)
  %34 = icmp eq i8 %20, 0
  br i1 %34, label %35, label %42

35:                                               ; preds = %33
  %36 = load atomic i64, ptr @_ZN3std9panicking11panic_count18GLOBAL_PANIC_COUNT17hbd0a618f0d2566aaE monotonic, align 8, !noalias !481
  %37 = and i64 %36, 9223372036854775807
  %38 = icmp eq i64 %37, 0
  br i1 %38, label %42, label %39

39:                                               ; preds = %35
  %40 = call noundef zeroext i1 @_ZN3std9panicking11panic_count17is_zero_slow_path17hb0fb1c6a103a0962E(), !noalias !481
  br i1 %40, label %42, label %41

41:                                               ; preds = %39
  store atomic i8 1, ptr getelementptr inbounds (<{ [5 x i8], [3 x i8] }>, ptr @_ZN3std10sys_common9backtrace4lock4LOCK17h25851852f49cd150E.llvm.11955502528429326793, i64 0, i32 0, i64 4) monotonic, align 4, !noalias !481
  br label %42

42:                                               ; preds = %41, %39, %35, %33
  %43 = load ptr, ptr %7, align 8, !alias.scope !481, !nonnull !14, !align !320, !noundef !14
  %44 = atomicrmw xchg ptr %43, i32 0 release, align 4, !noalias !481
  %45 = icmp eq i32 %44, 2
  br i1 %45, label %46, label %48

46:                                               ; preds = %42
  %47 = call noundef i64 (i64, ...) @syscall(i64 noundef 202, ptr noundef nonnull %43, i32 noundef 129, i32 noundef 1) #21, !noalias !481
  br label %48

48:                                               ; preds = %46, %42
  call void @llvm.lifetime.end.p0(i64 16, ptr nonnull %7)
  ret ptr %30
}

; Function Attrs: nonlazybind sanitize_hwaddress uwtable
declare hidden noundef zeroext i1 @"_ZN91_$LT$std..sys_common..backtrace.._print..DisplayBacktrace$u20$as$u20$core..fmt..Display$GT$3fmt17h384fb4c2f89cf998E"(ptr noalias nocapture noundef readonly align 1 dereferenceable(1), ptr noalias noundef align 8 dereferenceable(64)) unnamed_addr #12

; Function Attrs: noinline noreturn nonlazybind sanitize_hwaddress uwtable
define hidden void @_ZN3std10sys_common9backtrace26__rust_end_short_backtrace17h2d0aa5c03fed18eeE(ptr noalias nocapture noundef readonly align 8 dereferenceable(24) %0) unnamed_addr #9 {
  tail call fastcc void @"_ZN3std9panicking19begin_panic_handler28_$u7b$$u7b$closure$u7d$$u7d$17h2bcb770be87a9078E"(ptr noalias nocapture noundef nonnull readonly align 8 dereferenceable(24) %0) #34
  unreachable
}

; Function Attrs: inlinehint noreturn nonlazybind sanitize_hwaddress uwtable
define hidden fastcc void @"_ZN3std9panicking19begin_panic_handler28_$u7b$$u7b$closure$u7d$$u7d$17h2bcb770be87a9078E"(ptr noalias nocapture noundef readonly align 8 dereferenceable(24) %0) unnamed_addr #33 personality ptr @rust_eh_personality {
  %2 = alloca { { i64, [2 x i64] }, ptr }, align 8
  %3 = alloca { ptr, i64 }, align 8
  %4 = load ptr, ptr %0, align 8, !nonnull !14, !align !15, !noundef !14
  %5 = load ptr, ptr %4, align 8, !nonnull !14, !align !15, !noundef !14
  %6 = getelementptr inbounds { ptr, i64 }, ptr %4, i64 0, i32 1
  %7 = load i64, ptr %6, align 8, !noundef !14
  %8 = getelementptr inbounds { { ptr, i64 }, { ptr, i64 }, { ptr, i64 } }, ptr %4, i64 0, i32 1, i32 1
  %9 = load i64, ptr %8, align 8, !noundef !14
  switch i64 %7, label %34 [
    i64 0, label %10
    i64 1, label %12
  ]

10:                                               ; preds = %1
  %11 = icmp eq i64 %9, 0
  br i1 %11, label %18, label %34

12:                                               ; preds = %1
  %13 = icmp eq i64 %9, 0
  br i1 %13, label %14, label %34

14:                                               ; preds = %12
  %15 = load ptr, ptr %5, align 8, !nonnull !14, !align !16, !noundef !14
  %16 = getelementptr inbounds { ptr, i64 }, ptr %5, i64 0, i32 1
  %17 = load i64, ptr %16, align 8, !noundef !14
  br label %18

18:                                               ; preds = %14, %10
  %19 = phi i64 [ 0, %10 ], [ %17, %14 ]
  %20 = phi ptr [ @anon.7c5502a9deccded8a3ba90acf2a62090.0.llvm.11955502528429326793, %10 ], [ %15, %14 ]
  call void @llvm.lifetime.start.p0(i64 16, ptr nonnull %3)
  store ptr %20, ptr %3, align 8
  %21 = getelementptr inbounds { ptr, i64 }, ptr %3, i64 0, i32 1
  store i64 %19, ptr %21, align 8
  %22 = getelementptr inbounds { ptr, ptr, ptr }, ptr %0, i64 0, i32 1
  %23 = load ptr, ptr %22, align 8, !nonnull !14, !align !15, !noundef !14
  %24 = getelementptr inbounds { { ptr, ptr }, ptr, ptr, i8, i8, [6 x i8] }, ptr %23, i64 0, i32 1
  %25 = load ptr, ptr %24, align 8, !align !15, !noundef !14
  %26 = getelementptr inbounds { ptr, ptr, ptr }, ptr %0, i64 0, i32 2
  %27 = load ptr, ptr %26, align 8, !nonnull !14, !align !15, !noundef !14
  %28 = getelementptr inbounds { { ptr, ptr }, ptr, ptr, i8, i8, [6 x i8] }, ptr %23, i64 0, i32 3
  %29 = load i8, ptr %28, align 8, !range !96, !noundef !14
  %30 = icmp ne i8 %29, 0
  %31 = getelementptr inbounds { { ptr, ptr }, ptr, ptr, i8, i8, [6 x i8] }, ptr %23, i64 0, i32 4
  %32 = load i8, ptr %31, align 1, !range !96, !noundef !14
  %33 = icmp ne i8 %32, 0
  call void @_ZN3std9panicking20rust_panic_with_hook17hdfb83b5aefcef115E(ptr noundef nonnull align 1 %3, ptr noalias noundef nonnull readonly align 8 dereferenceable(24) @anon.7c5502a9deccded8a3ba90acf2a62090.76, ptr noalias noundef readonly align 8 dereferenceable_or_null(48) %25, ptr noalias noundef nonnull readonly align 8 dereferenceable(24) %27, i1 noundef zeroext %30, i1 noundef zeroext %33) #34
  unreachable

34:                                               ; preds = %12, %10, %1
  call void @llvm.lifetime.start.p0(i64 32, ptr nonnull %2)
  %35 = getelementptr inbounds { { i64, [2 x i64] }, ptr }, ptr %2, i64 0, i32 1
  store ptr %4, ptr %35, align 8
  store i64 -9223372036854775808, ptr %2, align 8
  %36 = getelementptr inbounds { ptr, ptr, ptr }, ptr %0, i64 0, i32 1
  %37 = load ptr, ptr %36, align 8, !nonnull !14, !align !15, !noundef !14
  %38 = getelementptr inbounds { { ptr, ptr }, ptr, ptr, i8, i8, [6 x i8] }, ptr %37, i64 0, i32 1
  %39 = load ptr, ptr %38, align 8, !align !15, !noundef !14
  %40 = getelementptr inbounds { ptr, ptr, ptr }, ptr %0, i64 0, i32 2
  %41 = load ptr, ptr %40, align 8, !nonnull !14, !align !15, !noundef !14
  %42 = getelementptr inbounds { { ptr, ptr }, ptr, ptr, i8, i8, [6 x i8] }, ptr %37, i64 0, i32 3
  %43 = load i8, ptr %42, align 8, !range !96, !noundef !14
  %44 = icmp ne i8 %43, 0
  %45 = getelementptr inbounds { { ptr, ptr }, ptr, ptr, i8, i8, [6 x i8] }, ptr %37, i64 0, i32 4
  %46 = load i8, ptr %45, align 1, !range !96, !noundef !14
  %47 = icmp ne i8 %46, 0
  invoke void @_ZN3std9panicking20rust_panic_with_hook17hdfb83b5aefcef115E(ptr noundef nonnull align 1 %2, ptr noalias noundef nonnull readonly align 8 dereferenceable(24) @anon.7c5502a9deccded8a3ba90acf2a62090.77, ptr noalias noundef readonly align 8 dereferenceable_or_null(48) %39, ptr noalias noundef nonnull readonly align 8 dereferenceable(24) %41, i1 noundef zeroext %44, i1 noundef zeroext %47) #34
          to label %57 unwind label %48

48:                                               ; preds = %34
  %49 = landingpad { ptr, i32 }
          cleanup
  %50 = load i64, ptr %2, align 8, !range !482, !noundef !14
  %51 = icmp eq i64 %50, -9223372036854775808
  br i1 %51, label %58, label %52

52:                                               ; preds = %48
  call void @llvm.experimental.noalias.scope.decl(metadata !483)
  %53 = icmp eq i64 %50, 0
  br i1 %53, label %58, label %54

54:                                               ; preds = %52
  %55 = getelementptr inbounds i8, ptr %2, i64 8
  %56 = load ptr, ptr %55, align 8, !alias.scope !483, !nonnull !14, !noundef !14
  call void @__rust_dealloc(ptr noundef nonnull %56, i64 noundef %50, i64 noundef 1) #21, !noalias !483
  br label %58

57:                                               ; preds = %34
  unreachable

58:                                               ; preds = %54, %52, %48
  resume { ptr, i32 } %49
}

; Function Attrs: nounwind nonlazybind sanitize_hwaddress uwtable
declare noundef ptr @pthread_getspecific(i32 noundef) unnamed_addr #20

; Function Attrs: nounwind nonlazybind sanitize_hwaddress uwtable
declare noundef i32 @pthread_setspecific(i32 noundef, ptr noundef) unnamed_addr #20

; Function Attrs: nonlazybind sanitize_hwaddress uwtable
define hidden fastcc void @"_ZN4core3ptr42drop_in_place$LT$std..io..error..Error$GT$17h99f3a84feb436a8eE.llvm.7279691912519863836"(ptr %0) unnamed_addr #12 personality ptr @rust_eh_personality {
  %2 = icmp ne ptr %0, null
  tail call void @llvm.assume(i1 %2)
  %3 = ptrtoint ptr %0 to i64
  %4 = and i64 %3, 3
  switch i64 %4, label %5 [
    i64 2, label %38
    i64 3, label %6
    i64 0, label %38
    i64 1, label %10
  ]

5:                                                ; preds = %1
  unreachable

6:                                                ; preds = %1
  %7 = lshr i64 %3, 32
  %8 = trunc i64 %7 to i32
  %9 = icmp ult i32 %8, 41
  tail call void @llvm.assume(i1 %9)
  br label %38

10:                                               ; preds = %1
  %11 = getelementptr i8, ptr %0, i64 -1
  %12 = icmp ne ptr %11, null
  tail call void @llvm.assume(i1 %12)
  %13 = load ptr, ptr %11, align 8, !noundef !14
  %14 = getelementptr i8, ptr %0, i64 7
  %15 = load ptr, ptr %14, align 8, !nonnull !14, !align !15, !noundef !14
  %16 = load ptr, ptr %15, align 8, !invariant.load !14, !nonnull !14
  invoke void %16(ptr noundef nonnull align 1 %13)
          to label %27 unwind label %17

17:                                               ; preds = %10
  %18 = landingpad { ptr, i32 }
          cleanup
  %19 = icmp ne ptr %13, null
  tail call void @llvm.assume(i1 %19)
  %20 = getelementptr inbounds i64, ptr %15, i64 1
  %21 = load i64, ptr %20, align 8, !range !82, !invariant.load !14
  %22 = getelementptr inbounds i64, ptr %15, i64 2
  %23 = load i64, ptr %22, align 8, !range !83, !invariant.load !14
  %24 = icmp ult i64 %23, -9223372036854775807
  tail call void @llvm.assume(i1 %24)
  %25 = icmp eq i64 %21, 0
  br i1 %25, label %36, label %26

26:                                               ; preds = %17
  tail call void @__rust_dealloc(ptr noundef nonnull %13, i64 noundef %21, i64 noundef %23) #21
  br label %36

27:                                               ; preds = %10
  %28 = icmp ne ptr %13, null
  tail call void @llvm.assume(i1 %28)
  %29 = getelementptr inbounds i64, ptr %15, i64 1
  %30 = load i64, ptr %29, align 8, !range !82, !invariant.load !14
  %31 = getelementptr inbounds i64, ptr %15, i64 2
  %32 = load i64, ptr %31, align 8, !range !83, !invariant.load !14
  %33 = icmp ult i64 %32, -9223372036854775807
  tail call void @llvm.assume(i1 %33)
  %34 = icmp eq i64 %30, 0
  br i1 %34, label %37, label %35

35:                                               ; preds = %27
  tail call void @__rust_dealloc(ptr noundef nonnull %13, i64 noundef %30, i64 noundef %32) #21
  br label %37

36:                                               ; preds = %26, %17
  tail call void @__rust_dealloc(ptr noundef nonnull %11, i64 noundef 24, i64 noundef 8) #21
  resume { ptr, i32 } %18

37:                                               ; preds = %35, %27
  tail call void @__rust_dealloc(ptr noundef nonnull %11, i64 noundef 24, i64 noundef 8) #21
  br label %38

38:                                               ; preds = %37, %6, %1, %1
  ret void
}

; Function Attrs: nonlazybind sanitize_hwaddress uwtable
define hidden fastcc void @"_ZN4core3ptr81drop_in_place$LT$core..result..Result$LT$$LP$$RP$$C$std..io..error..Error$GT$$GT$17h69a169799d202746E.llvm.7279691912519863836"(ptr %0) unnamed_addr #12 {
  %2 = icmp eq ptr %0, null
  br i1 %2, label %3, label %4

3:                                                ; preds = %4, %1
  ret void

4:                                                ; preds = %1
  tail call fastcc void @"_ZN4core3ptr42drop_in_place$LT$std..io..error..Error$GT$17h99f3a84feb436a8eE.llvm.7279691912519863836"(ptr nonnull %0)
  br label %3
}

; Function Attrs: nonlazybind sanitize_hwaddress uwtable
define hidden void @_ZN3std10sys_common17thread_local_dtor22register_dtor_fallback17h1c98fe5f551f3094E(ptr noundef %0, ptr noundef nonnull %1) unnamed_addr #12 personality ptr @rust_eh_personality {
  %3 = alloca [0 x { ptr, ptr }], align 8
  %4 = alloca { { ptr, i64 }, { ptr, i64 }, { ptr, i64 } }, align 8
  %5 = load atomic i64, ptr @_ZN3std10sys_common17thread_local_dtor22register_dtor_fallback5DTORS17hd0ab7c72161d8bc2E.llvm.7279691912519863836 monotonic, align 8
  %6 = icmp eq i64 %5, 0
  br i1 %6, label %7, label %9

7:                                                ; preds = %2
  %8 = tail call noundef i64 @_ZN3std10sys_common16thread_local_key9StaticKey9lazy_init17h2ffdd9bb1b16082fE(ptr noundef nonnull align 8 @_ZN3std10sys_common17thread_local_dtor22register_dtor_fallback5DTORS17hd0ab7c72161d8bc2E.llvm.7279691912519863836)
  br label %9

9:                                                ; preds = %7, %2
  %10 = phi i64 [ %8, %7 ], [ %5, %2 ]
  %11 = trunc i64 %10 to i32
  %12 = tail call noundef ptr @pthread_getspecific(i32 noundef %11) #21
  %13 = icmp eq ptr %12, null
  br i1 %13, label %14, label %30

14:                                               ; preds = %9
  %15 = load volatile i8, ptr @__rust_no_alloc_shim_is_unstable, align 1, !noalias !486
  %16 = tail call noundef align 8 dereferenceable_or_null(32) ptr @__rust_alloc(i64 noundef 32, i64 noundef 8) #21, !noalias !486
  %17 = icmp eq ptr %16, null
  br i1 %17, label %18, label %19

18:                                               ; preds = %14
  tail call void @_ZN5alloc5alloc18handle_alloc_error17h673e7e4436424ea8E(i64 noundef 8, i64 noundef 32) #34, !noalias !486
  unreachable

19:                                               ; preds = %14
  %20 = getelementptr inbounds i8, ptr %16, i64 16
  tail call void @llvm.memset.p0.i64(ptr noundef nonnull align 8 dereferenceable(16) %16, i8 0, i64 16, i1 false)
  store ptr inttoptr (i64 8 to ptr), ptr %20, align 8
  %21 = getelementptr inbounds i8, ptr %16, i64 24
  store i64 0, ptr %21, align 8
  %22 = load atomic i64, ptr @_ZN3std10sys_common17thread_local_dtor22register_dtor_fallback5DTORS17hd0ab7c72161d8bc2E.llvm.7279691912519863836 monotonic, align 8
  %23 = icmp eq i64 %22, 0
  br i1 %23, label %24, label %26

24:                                               ; preds = %19
  %25 = tail call noundef i64 @_ZN3std10sys_common16thread_local_key9StaticKey9lazy_init17h2ffdd9bb1b16082fE(ptr noundef nonnull align 8 @_ZN3std10sys_common17thread_local_dtor22register_dtor_fallback5DTORS17hd0ab7c72161d8bc2E.llvm.7279691912519863836)
  br label %26

26:                                               ; preds = %24, %19
  %27 = phi i64 [ %25, %24 ], [ %22, %19 ]
  %28 = trunc i64 %27 to i32
  %29 = tail call noundef i32 @pthread_setspecific(i32 noundef %28, ptr noundef nonnull %16) #21
  br label %30

30:                                               ; preds = %26, %9
  %31 = load atomic i64, ptr @_ZN3std10sys_common17thread_local_dtor22register_dtor_fallback5DTORS17hd0ab7c72161d8bc2E.llvm.7279691912519863836 monotonic, align 8
  %32 = icmp eq i64 %31, 0
  br i1 %32, label %33, label %35

33:                                               ; preds = %30
  %34 = tail call noundef i64 @_ZN3std10sys_common16thread_local_key9StaticKey9lazy_init17h2ffdd9bb1b16082fE(ptr noundef nonnull align 8 @_ZN3std10sys_common17thread_local_dtor22register_dtor_fallback5DTORS17hd0ab7c72161d8bc2E.llvm.7279691912519863836)
  br label %35

35:                                               ; preds = %33, %30
  %36 = phi i64 [ %34, %33 ], [ %31, %30 ]
  %37 = trunc i64 %36 to i32
  %38 = tail call noundef ptr @pthread_getspecific(i32 noundef %37) #21
  %39 = load i64, ptr %38, align 8, !noundef !14
  %40 = icmp eq i64 %39, 0
  br i1 %40, label %41, label %48

41:                                               ; preds = %35
  store i64 -1, ptr %38, align 8
  %42 = getelementptr inbounds { i64, { { { i64, ptr }, i64 } } }, ptr %38, i64 0, i32 1
  %43 = getelementptr inbounds { i64, { { { i64, ptr }, i64 } } }, ptr %38, i64 0, i32 1, i32 0, i32 1
  %44 = load i64, ptr %43, align 8, !alias.scope !489, !noundef !14
  %45 = load i64, ptr %42, align 8, !alias.scope !489, !noundef !14
  %46 = icmp eq i64 %44, %45
  br i1 %46, label %47, label %54

47:                                               ; preds = %41
  invoke void @"_ZN5alloc7raw_vec19RawVec$LT$T$C$A$GT$16reserve_for_push17hc95d9c8933dbadf7E"(ptr noalias noundef nonnull align 8 dereferenceable(16) %42, i64 noundef %44)
          to label %54 unwind label %64

48:                                               ; preds = %35
  call void @llvm.lifetime.start.p0(i64 48, ptr nonnull %4)
  store ptr @anon.d171c0e895e077d41e638b9b7e57398d.68.llvm.7279691912519863836, ptr %4, align 8, !alias.scope !492, !noalias !495
  %49 = getelementptr inbounds { ptr, i64 }, ptr %4, i64 0, i32 1
  store i64 1, ptr %49, align 8, !alias.scope !492, !noalias !495
  %50 = getelementptr inbounds { { ptr, i64 }, { ptr, i64 }, { ptr, i64 } }, ptr %4, i64 0, i32 2
  store ptr null, ptr %50, align 8, !alias.scope !492, !noalias !495
  %51 = getelementptr inbounds { { ptr, i64 }, { ptr, i64 }, { ptr, i64 } }, ptr %4, i64 0, i32 1
  store ptr %3, ptr %51, align 8, !alias.scope !492, !noalias !495
  %52 = getelementptr inbounds { { ptr, i64 }, { ptr, i64 }, { ptr, i64 } }, ptr %4, i64 0, i32 1, i32 1
  store i64 0, ptr %52, align 8, !alias.scope !492, !noalias !495
  %53 = call noundef ptr @_ZN3std2io5Write9write_fmt17hc450c2a975ecb6f3E(ptr noalias noundef nonnull align 1 %3, ptr noalias nocapture noundef nonnull align 8 dereferenceable(48) %4)
  call void @llvm.lifetime.end.p0(i64 48, ptr nonnull %4)
  call fastcc void @"_ZN4core3ptr81drop_in_place$LT$core..result..Result$LT$$LP$$RP$$C$std..io..error..Error$GT$$GT$17h69a169799d202746E.llvm.7279691912519863836"(ptr %53)
  call void @_ZN3std3sys4unix14abort_internal17h4cce76577424ac08E() #34
  unreachable

54:                                               ; preds = %47, %41
  %55 = getelementptr inbounds { i64, { { { i64, ptr }, i64 } } }, ptr %38, i64 0, i32 1, i32 0, i32 0, i32 1
  %56 = load ptr, ptr %55, align 8, !alias.scope !489, !nonnull !14, !noundef !14
  %57 = load i64, ptr %43, align 8, !alias.scope !489, !noundef !14
  %58 = getelementptr inbounds { ptr, ptr }, ptr %56, i64 %57
  store ptr %0, ptr %58, align 8
  %59 = getelementptr inbounds { ptr, ptr }, ptr %56, i64 %57, i32 1
  store ptr %1, ptr %59, align 8
  %60 = load i64, ptr %43, align 8, !alias.scope !489, !noundef !14
  %61 = add i64 %60, 1
  store i64 %61, ptr %43, align 8, !alias.scope !489
  %62 = load i64, ptr %38, align 8, !noundef !14
  %63 = add i64 %62, 1
  store i64 %63, ptr %38, align 8
  ret void

64:                                               ; preds = %47
  %65 = landingpad { ptr, i32 }
          cleanup
  %66 = load i64, ptr %38, align 8, !noundef !14
  %67 = add i64 %66, 1
  store i64 %67, ptr %38, align 8
  resume { ptr, i32 } %65
}

declare void @__enzyme_autodiff(...)

define void @enzyme_opt_helper_0() {
  call void (...) @__enzyme_autodiff(ptr @eprintfunc)
  ret void
}

declare void @"_ZN5alloc7raw_vec19RawVec$LT$T$C$A$GT$16reserve_for_push17hc95d9c8933dbadf7E"(ptr, i64)

attributes #0 = { noinline nonlazybind sanitize_hwaddress uwtable "probe-stack"="inline-asm" "target-cpu"="x86-64" }
attributes #1 = { nocallback nofree nosync nounwind willreturn memory(argmem: readwrite) }
attributes #2 = { sanitize_hwaddress uwtable }
attributes #3 = { noreturn sanitize_hwaddress uwtable }
attributes #4 = { nofree nounwind nonlazybind willreturn memory(argmem: read) }
attributes #5 = { nocallback nofree nounwind willreturn memory(argmem: readwrite) }
attributes #6 = { nocallback nofree nosync nounwind willreturn memory(inaccessiblemem: readwrite) }
attributes #7 = { nocallback nofree nosync nounwind speculatable willreturn memory(none) }
attributes #8 = { mustprogress nofree nounwind nonlazybind sanitize_hwaddress willreturn memory(argmem: read) uwtable "probe-stack"="inline-asm" "target-cpu"="x86-64" }
attributes #9 = { noinline noreturn nonlazybind sanitize_hwaddress uwtable "probe-stack"="inline-asm" "target-cpu"="x86-64" }
attributes #10 = { cold noreturn nonlazybind sanitize_hwaddress uwtable "probe-stack"="inline-asm" "target-cpu"="x86-64" }
attributes #11 = { cold noreturn nounwind }
attributes #12 = { nonlazybind sanitize_hwaddress uwtable "probe-stack"="inline-asm" "target-cpu"="x86-64" }
attributes #13 = { nocallback nofree nounwind willreturn memory(argmem: write) }
attributes #14 = { cold noinline noreturn nonlazybind sanitize_hwaddress uwtable "probe-stack"="inline-asm" "target-cpu"="x86-64" }
attributes #15 = { cold noinline noreturn nounwind nonlazybind sanitize_hwaddress uwtable "probe-stack"="inline-asm" "target-cpu"="x86-64" }
attributes #16 = { nofree nosync nounwind nonlazybind sanitize_hwaddress memory(argmem: readwrite, inaccessiblemem: readwrite) uwtable "probe-stack"="inline-asm" "target-cpu"="x86-64" }
attributes #17 = { inlinehint nofree norecurse noreturn nounwind nonlazybind sanitize_hwaddress memory(argmem: read, inaccessiblemem: readwrite) uwtable "probe-stack"="inline-asm" "target-cpu"="x86-64" }
attributes #18 = { noreturn nounwind nonlazybind sanitize_hwaddress uwtable "probe-stack"="inline-asm" "target-cpu"="x86-64" }
attributes #19 = { cold nounwind nonlazybind sanitize_hwaddress uwtable "probe-stack"="inline-asm" "target-cpu"="x86-64" }
attributes #20 = { nounwind nonlazybind sanitize_hwaddress uwtable "probe-stack"="inline-asm" "target-cpu"="x86-64" }
attributes #21 = { nounwind }
attributes #22 = { inlinehint nonlazybind sanitize_hwaddress uwtable "probe-stack"="inline-asm" "target-cpu"="x86-64" }
attributes #23 = { cold nonlazybind sanitize_hwaddress uwtable "probe-stack"="inline-asm" "target-cpu"="x86-64" }
attributes #24 = { nofree nounwind nonlazybind sanitize_hwaddress memory(read) uwtable "probe-stack"="inline-asm" "target-cpu"="x86-64" }
attributes #25 = { noreturn nonlazybind sanitize_hwaddress uwtable "probe-stack"="inline-asm" "target-cpu"="x86-64" }
attributes #26 = { noinline nounwind nonlazybind sanitize_hwaddress uwtable "probe-stack"="inline-asm" "target-cpu"="x86-64" }
attributes #27 = { cold noreturn nounwind nonlazybind sanitize_hwaddress uwtable "probe-stack"="inline-asm" "target-cpu"="x86-64" }
attributes #28 = { mustprogress nounwind nonlazybind sanitize_hwaddress willreturn allockind("free") memory(argmem: readwrite, inaccessiblemem: readwrite) uwtable "alloc-family"="malloc" "probe-stack"="inline-asm" "target-cpu"="x86-64" }
attributes #29 = { nofree nounwind nonlazybind sanitize_hwaddress uwtable "probe-stack"="inline-asm" "target-cpu"="x86-64" }
attributes #30 = { mustprogress nofree nounwind nonlazybind sanitize_hwaddress willreturn allockind("alloc,uninitialized") allocsize(0) memory(inaccessiblemem: readwrite) uwtable "alloc-family"="malloc" "probe-stack"="inline-asm" "target-cpu"="x86-64" }
attributes #31 = { mustprogress nounwind nonlazybind sanitize_hwaddress willreturn memory(argmem: readwrite, inaccessiblemem: readwrite) uwtable "probe-stack"="inline-asm" "target-cpu"="x86-64" }
attributes #32 = { cold mustprogress nofree noinline norecurse nosync nounwind nonlazybind sanitize_hwaddress willreturn memory(read, argmem: none, inaccessiblemem: none) uwtable "probe-stack"="inline-asm" "target-cpu"="x86-64" }
attributes #33 = { inlinehint noreturn nonlazybind sanitize_hwaddress uwtable "probe-stack"="inline-asm" "target-cpu"="x86-64" }
attributes #34 = { noreturn }
attributes #35 = { noreturn nounwind }
attributes #36 = { cold }

!llvm.module.flags = !{!0, !1, !2, !3}
!llvm.ident = !{!4, !4, !4, !4, !4, !4, !4, !4, !4, !4, !4, !4, !4, !4, !4, !4, !4, !4, !4, !4, !4, !4, !4, !4, !4, !4, !4, !4, !4, !4, !4, !4, !4, !4, !4, !4, !4, !4, !4, !4, !4, !4, !4, !4, !4, !4, !4, !4, !4, !4, !4, !4, !4, !4, !4, !4, !4, !4, !4, !4, !4, !4, !4, !4, !4, !4, !4, !4, !4, !4, !4, !4, !4, !4, !4, !4, !4, !4, !4, !4, !4, !4, !4, !4, !4, !4, !4, !4, !4, !4, !4, !4, !4, !4, !4, !4, !4, !4, !4, !4, !4, !4, !4, !4, !4, !4, !4, !4, !4, !4, !4, !4, !4, !4, !4, !4, !4, !4, !4, !4, !4, !4, !4, !4, !4, !4, !4, !4, !4, !4, !4, !4, !4, !4, !4, !4, !4, !4, !4, !4, !4, !4, !4, !4, !4, !4, !4, !4, !4, !4, !4, !4, !4, !4, !4, !4, !4, !4, !4, !4, !4, !4, !4, !4, !4, !4, !4, !4, !4, !4, !4, !4, !4, !4, !4, !4, !4, !4, !4, !4, !4, !4, !4, !4, !4, !4, !4, !4, !4, !4, !4, !4, !4, !4, !4, !4, !4, !4, !4, !4}

!0 = !{i32 8, !"PIC Level", i32 2}
!1 = !{i32 7, !"PIE Level", i32 2}
!2 = !{i32 2, !"RtLibUseGOT", i32 1}
!3 = !{i32 1, !"LTOPostLink", i32 1}
!4 = !{!"rustc version 1.77.0-nightly (25d19898a 2024-07-18)"}
!5 = !{!6}
!6 = distinct !{!6, !7, !"_ZN4core3fmt9Arguments6new_v117h488b28ff84ad13cbE: argument 0"}
!7 = distinct !{!7, !"_ZN4core3fmt9Arguments6new_v117h488b28ff84ad13cbE"}
!8 = !{!9}
!9 = distinct !{!9, !7, !"_ZN4core3fmt9Arguments6new_v117h488b28ff84ad13cbE: argument 1"}
!10 = !{!11, !13}
!11 = distinct !{!11, !12, !"_ZN4core6result19Result$LT$T$C$E$GT$6unwrap17habc374bdba584eddE: argument 0"}
!12 = distinct !{!12, !"_ZN4core6result19Result$LT$T$C$E$GT$6unwrap17habc374bdba584eddE"}
